ARM GAS  C:\Users\furka\AppData\Local\Temp\cc6thHdA.s 			page 1


   1              		.syntax unified
   2              		.cpu cortex-m3
   3              		.fpu softvfp
   4              		.eabi_attribute 20, 1
   5              		.eabi_attribute 21, 1
   6              		.eabi_attribute 23, 3
   7              		.eabi_attribute 24, 1
   8              		.eabi_attribute 25, 1
   9              		.eabi_attribute 26, 1
  10              		.eabi_attribute 30, 1
  11              		.eabi_attribute 34, 1
  12              		.eabi_attribute 18, 4
  13              		.thumb
  14              		.syntax unified
  15              		.file	"algorithm.c"
  16              		.text
  17              	.Ltext0:
  18              		.cfi_sections	.debug_frame
  19              		.section	.text.maxim_peaks_above_min_height,"ax",%progbits
  20              		.align	2
  21              		.global	maxim_peaks_above_min_height
  22              		.thumb
  23              		.thumb_func
  24              		.type	maxim_peaks_above_min_height, %function
  25              	maxim_peaks_above_min_height:
  26              	.LFB65:
  27              		.file 1 "algorithm.c"
   1:algorithm.c   ****     /** \file algorithm.cpp ******************************************************
   2:algorithm.c   ****     *
   3:algorithm.c   ****     * Project: MAXREFDES117#
   4:algorithm.c   ****     * Filename: algorithm.cpp
   5:algorithm.c   ****     * Description: This module calculates the heart rate/SpO2 level
   6:algorithm.c   ****     *
   7:algorithm.c   ****     *
   8:algorithm.c   ****     * --------------------------------------------------------------------
   9:algorithm.c   ****     *
  10:algorithm.c   ****     * This code follows the following naming conventions:
  11:algorithm.c   ****     *
  12:algorithm.c   ****     * char              ch_pmod_value
  13:algorithm.c   ****     * char (array)      s_pmod_s_string[16]
  14:algorithm.c   ****     * float             f_pmod_value
  15:algorithm.c   ****     * int32_t           n_pmod_value
  16:algorithm.c   ****     * int32_t (array)   an_pmod_value[16]
  17:algorithm.c   ****     * int16_t           w_pmod_value
  18:algorithm.c   ****     * int16_t (array)   aw_pmod_value[16]
  19:algorithm.c   ****     * uint16_t          uw_pmod_value
  20:algorithm.c   ****     * uint16_t (array)  auw_pmod_value[16]
  21:algorithm.c   ****     * uint8_t           uch_pmod_value
  22:algorithm.c   ****     * uint8_t (array)   auch_pmod_buffer[16]
  23:algorithm.c   ****     * uint32_t          un_pmod_value
  24:algorithm.c   ****     * int32_t *         pn_pmod_value
  25:algorithm.c   ****     *
  26:algorithm.c   ****     * ------------------------------------------------------------------------- */
  27:algorithm.c   ****     /*******************************************************************************
  28:algorithm.c   ****     * Copyright (C) 2016 Maxim Integrated Products, Inc., All Rights Reserved.
  29:algorithm.c   ****     *
  30:algorithm.c   ****     * Permission is hereby granted, free of charge, to any person obtaining a
ARM GAS  C:\Users\furka\AppData\Local\Temp\cc6thHdA.s 			page 2


  31:algorithm.c   ****     * copy of this software and associated documentation files (the "Software"),
  32:algorithm.c   ****     * to deal in the Software without restriction, including without limitation
  33:algorithm.c   ****     * the rights to use, copy, modify, merge, publish, distribute, sublicense,
  34:algorithm.c   ****     * and/or sell copies of the Software, and to permit persons to whom the
  35:algorithm.c   ****     * Software is furnished to do so, subject to the following conditions:
  36:algorithm.c   ****     *
  37:algorithm.c   ****     * The above copyright notice and this permission notice shall be included
  38:algorithm.c   ****     * in all copies or substantial portions of the Software.
  39:algorithm.c   ****     *
  40:algorithm.c   ****     * THE SOFTWARE IS PROVIDED "AS IS", WITHOUT WARRANTY OF ANY KIND, EXPRESS
  41:algorithm.c   ****     * OR IMPLIED, INCLUDING BUT NOT LIMITED TO THE WARRANTIES OF
  42:algorithm.c   ****     * MERCHANTABILITY, FITNESS FOR A PARTICULAR PURPOSE AND NONINFRINGEMENT.
  43:algorithm.c   ****     * IN NO EVENT SHALL MAXIM INTEGRATED BE LIABLE FOR ANY CLAIM, DAMAGES
  44:algorithm.c   ****     * OR OTHER LIABILITY, WHETHER IN AN ACTION OF CONTRACT, TORT OR OTHERWISE,
  45:algorithm.c   ****     * ARISING FROM, OUT OF OR IN CONNECTION WITH THE SOFTWARE OR THE USE OR
  46:algorithm.c   ****     * OTHER DEALINGS IN THE SOFTWARE.
  47:algorithm.c   ****     *
  48:algorithm.c   ****     * Except as contained in this notice, the name of Maxim Integrated
  49:algorithm.c   ****     * Products, Inc. shall not be used except as stated in the Maxim Integrated
  50:algorithm.c   ****     * Products, Inc. Branding Policy.
  51:algorithm.c   ****     *
  52:algorithm.c   ****     * The mere transfer of this software does not imply any licenses
  53:algorithm.c   ****     * of trade secrets, proprietary technology, copyrights, patents,
  54:algorithm.c   ****     * trademarks, maskwork rights, or any other form of intellectual
  55:algorithm.c   ****     * property whatsoever. Maxim Integrated Products, Inc. retains all
  56:algorithm.c   ****     * ownership rights.
  57:algorithm.c   ****     *******************************************************************************
  58:algorithm.c   ****     */
  59:algorithm.c   ****     #include "algorithm.h"
  60:algorithm.c   ****     const uint16_t auw_hamm[31]={ 41,    276,    512,    276,     41 }; //Hamm=  long16(512* hammin
  61:algorithm.c   ****     //uch_spo2_table is computed as  -45.060*ratioAverage* ratioAverage + 30.354 *ratioAverage + 94
  62:algorithm.c   ****     const uint8_t uch_spo2_table[184]={ 95, 95, 95, 96, 96, 96, 97, 97, 97, 97, 97, 98, 98, 98, 98,
  63:algorithm.c   ****                                 99, 99, 99, 99, 100, 100, 100, 100, 100, 100, 100, 100, 100, 100, 1
  64:algorithm.c   ****                                 100, 100, 100, 100, 99, 99, 99, 99, 99, 99, 99, 99, 98, 98, 98, 98,
  65:algorithm.c   ****                                 97, 97, 96, 96, 96, 96, 95, 95, 95, 94, 94, 94, 93, 93, 93, 92, 92,
  66:algorithm.c   ****                                 90, 90, 89, 89, 89, 88, 88, 87, 87, 86, 86, 85, 85, 84, 84, 83, 82,
  67:algorithm.c   ****                                 80, 80, 79, 78, 78, 77, 76, 76, 75, 74, 74, 73, 72, 72, 71, 70, 69,
  68:algorithm.c   ****                                 66, 66, 65, 64, 63, 62, 62, 61, 60, 59, 58, 57, 56, 56, 55, 54, 53,
  69:algorithm.c   ****                                 49, 48, 47, 46, 45, 44, 43, 42, 41, 40, 39, 38, 37, 36, 35, 34, 33,
  70:algorithm.c   ****                                 28, 27, 26, 25, 23, 22, 21, 20, 19, 17, 16, 15, 14, 12, 11, 10, 9, 
  71:algorithm.c   ****                                 3, 2, 1 } ;
  72:algorithm.c   **** 
  73:algorithm.c   ****     void maxim_heart_rate_and_oxygen_saturation(uint32_t *pun_ir_buffer,  int32_t n_ir_buffer_lengt
  74:algorithm.c   ****                                   int32_t *pn_heart_rate, int8_t  *pch_hr_valid)
  75:algorithm.c   ****     /**
  76:algorithm.c   ****     * \brief        Calculate the heart rate and SpO2 level
  77:algorithm.c   ****     * \par          Details
  78:algorithm.c   ****     *               By detecting  peaks of PPG cycle and corresponding AC/DC of red/infra-red signa
  79:algorithm.c   ****     *               Since this algorithm is aiming for Arm M0/M3. formaula for SPO2 did not achieve
  80:algorithm.c   ****     *               Thus, accurate SPO2 is precalculated and save longo uch_spo2_table[] per each r
  81:algorithm.c   ****     *
  82:algorithm.c   ****     * \param[in]    *pun_ir_buffer           - IR sensor data buffer
  83:algorithm.c   ****     * \param[in]    n_ir_buffer_length      - IR sensor data buffer length
  84:algorithm.c   ****     * \param[in]    *pun_red_buffer          - Red sensor data buffer
  85:algorithm.c   ****     * \param[out]    *pn_spo2                - Calculated SpO2 value
  86:algorithm.c   ****     * \param[out]    *pch_spo2_valid         - 1 if the calculated SpO2 value is valid
  87:algorithm.c   ****     * \param[out]    *pn_heart_rate          - Calculated heart rate value
ARM GAS  C:\Users\furka\AppData\Local\Temp\cc6thHdA.s 			page 3


  88:algorithm.c   ****     * \param[out]    *pch_hr_valid           - 1 if the calculated heart rate value is valid
  89:algorithm.c   ****     *
  90:algorithm.c   ****     * \retval       None
  91:algorithm.c   ****     */
  92:algorithm.c   ****     {
  93:algorithm.c   ****         static  int32_t an_dx[ BUFFER_SIZE-MA4_SIZE]; // delta
  94:algorithm.c   ****         static  int32_t an_x[ BUFFER_SIZE]; //ir
  95:algorithm.c   ****         static  int32_t an_y[ BUFFER_SIZE]; //red
  96:algorithm.c   **** 
  97:algorithm.c   ****         uint32_t un_ir_mean ,un_only_once ;
  98:algorithm.c   ****         int32_t k ,n_i_ratio_count;
  99:algorithm.c   ****         int32_t i, s, m, n_exact_ir_valley_locs_count ,n_middle_idx;
 100:algorithm.c   ****         int32_t n_th1, n_npks,n_c_min;      
 101:algorithm.c   ****         int32_t an_ir_valley_locs[15] ;
 102:algorithm.c   ****         int32_t an_exact_ir_valley_locs[15] ;
 103:algorithm.c   ****         int32_t an_dx_peak_locs[15] ;
 104:algorithm.c   ****         int32_t n_peak_interval_sum;
 105:algorithm.c   ****         
 106:algorithm.c   ****         int32_t n_y_ac, n_x_ac;
 107:algorithm.c   ****         int32_t n_spo2_calc; 
 108:algorithm.c   ****         int32_t n_y_dc_max, n_x_dc_max; 
 109:algorithm.c   ****         int32_t n_y_dc_max_idx=0, n_x_dc_max_idx=0; 
 110:algorithm.c   ****         int32_t an_ratio[5],n_ratio_average; 
 111:algorithm.c   ****         int32_t n_nume,  n_denom ;
 112:algorithm.c   ****         // remove DC of ir signal    
 113:algorithm.c   ****         un_ir_mean =0; 
 114:algorithm.c   ****         for (k=0 ; k<n_ir_buffer_length ; k++ ) un_ir_mean += pun_ir_buffer[k] ;
 115:algorithm.c   ****         un_ir_mean =un_ir_mean/n_ir_buffer_length ;
 116:algorithm.c   ****         for (k=0 ; k<n_ir_buffer_length ; k++ )  an_x[k] =  pun_ir_buffer[k] - un_ir_mean ; 
 117:algorithm.c   ****         
 118:algorithm.c   ****         // 4 pt Moving Average
 119:algorithm.c   ****         for(k=0; k< BUFFER_SIZE-MA4_SIZE; k++){
 120:algorithm.c   ****             n_denom= ( an_x[k]+an_x[k+1]+ an_x[k+2]+ an_x[k+3]);
 121:algorithm.c   ****             an_x[k]=  n_denom/(int32_t)4; 
 122:algorithm.c   ****         }
 123:algorithm.c   **** 
 124:algorithm.c   ****         // get difference of smoothed IR signal
 125:algorithm.c   ****         
 126:algorithm.c   ****         for( k=0; k<BUFFER_SIZE-MA4_SIZE-1;  k++)
 127:algorithm.c   ****             an_dx[k]= (an_x[k+1]- an_x[k]);
 128:algorithm.c   **** 
 129:algorithm.c   ****         // 2-pt Moving Average to an_dx
 130:algorithm.c   ****         for(k=0; k< BUFFER_SIZE-MA4_SIZE-2; k++){
 131:algorithm.c   ****             an_dx[k] =  ( an_dx[k]+an_dx[k+1])/2 ;
 132:algorithm.c   ****         }
 133:algorithm.c   ****         
 134:algorithm.c   ****         // hamming window
 135:algorithm.c   ****         // flip wave form so that we can detect valley with peak detector
 136:algorithm.c   ****         for ( i=0 ; i<BUFFER_SIZE-HAMMING_SIZE-MA4_SIZE-2 ;i++){
 137:algorithm.c   ****             s= 0;
 138:algorithm.c   ****             for( k=i; k<i+ HAMMING_SIZE ;k++){
 139:algorithm.c   ****                 s -= an_dx[k] *auw_hamm[k-i] ; 
 140:algorithm.c   ****                          }
 141:algorithm.c   ****             an_dx[i]= s/ (int32_t)1146; // divide by sum of auw_hamm 
 142:algorithm.c   ****         }
 143:algorithm.c   **** 
 144:algorithm.c   ****      
ARM GAS  C:\Users\furka\AppData\Local\Temp\cc6thHdA.s 			page 4


 145:algorithm.c   ****         n_th1=0; // threshold calculation
 146:algorithm.c   ****         for ( k=0 ; k<BUFFER_SIZE-HAMMING_SIZE ;k++){
 147:algorithm.c   ****             n_th1 += ((an_dx[k]>0)? an_dx[k] : ((int32_t)0-an_dx[k])) ;
 148:algorithm.c   ****         }
 149:algorithm.c   ****         n_th1= n_th1/ ( BUFFER_SIZE-HAMMING_SIZE);
 150:algorithm.c   ****         // peak location is acutally index for sharpest location of raw signal since we flipped the
 151:algorithm.c   ****         maxim_find_peaks( an_dx_peak_locs, &n_npks, an_dx, BUFFER_SIZE-HAMMING_SIZE, n_th1, 8, 5 );
 152:algorithm.c   **** 
 153:algorithm.c   ****         n_peak_interval_sum =0;
 154:algorithm.c   ****         if (n_npks>=2){
 155:algorithm.c   ****             for (k=1; k<n_npks; k++)
 156:algorithm.c   ****                 n_peak_interval_sum += (an_dx_peak_locs[k]-an_dx_peak_locs[k -1]);
 157:algorithm.c   ****             n_peak_interval_sum=n_peak_interval_sum/(n_npks-1);
 158:algorithm.c   ****             *pn_heart_rate=(int32_t)(6000/n_peak_interval_sum);// beats per minutes
 159:algorithm.c   ****             *pch_hr_valid  = 1;
 160:algorithm.c   ****         }
 161:algorithm.c   ****         else  {
 162:algorithm.c   ****             *pn_heart_rate = -999;
 163:algorithm.c   ****             *pch_hr_valid  = 0;
 164:algorithm.c   ****         }
 165:algorithm.c   ****                 
 166:algorithm.c   ****         for ( k=0 ; k<n_npks ;k++)
 167:algorithm.c   ****             an_ir_valley_locs[k]=an_dx_peak_locs[k]+HAMMING_SIZE/2; 
 168:algorithm.c   **** 
 169:algorithm.c   **** 
 170:algorithm.c   ****         // raw value : RED(=y) and IR(=X)
 171:algorithm.c   ****         // we need to assess DC and AC value of ir and red PPG. 
 172:algorithm.c   ****         for (k=0 ; k<n_ir_buffer_length ; k++ )  {
 173:algorithm.c   ****             an_x[k] =  pun_ir_buffer[k] ; 
 174:algorithm.c   ****             an_y[k] =  pun_red_buffer[k] ; 
 175:algorithm.c   ****         }
 176:algorithm.c   **** 
 177:algorithm.c   ****         // find precise min near an_ir_valley_locs
 178:algorithm.c   ****         n_exact_ir_valley_locs_count =0; 
 179:algorithm.c   ****         for(k=0 ; k<n_npks ;k++){
 180:algorithm.c   ****             un_only_once =1;
 181:algorithm.c   ****             m=an_ir_valley_locs[k];
 182:algorithm.c   ****             n_c_min= 16777216;//2^24;
 183:algorithm.c   ****             if (m+5 <  BUFFER_SIZE-HAMMING_SIZE  && m-5 >0){
 184:algorithm.c   ****                 for(i= m-5;i<m+5; i++)
 185:algorithm.c   ****                     if (an_x[i]<n_c_min){
 186:algorithm.c   ****                         if (un_only_once >0){
 187:algorithm.c   ****                            un_only_once =0;
 188:algorithm.c   ****                        } 
 189:algorithm.c   ****                        n_c_min= an_x[i] ;
 190:algorithm.c   ****                        an_exact_ir_valley_locs[k]=i;
 191:algorithm.c   ****                     }
 192:algorithm.c   ****                 if (un_only_once ==0)
 193:algorithm.c   ****                     n_exact_ir_valley_locs_count ++ ;
 194:algorithm.c   ****             }
 195:algorithm.c   ****         }
 196:algorithm.c   ****         if (n_exact_ir_valley_locs_count <2 ){
 197:algorithm.c   ****            *pn_spo2 =  -999 ; // do not use SPO2 since signal ratio is out of range
 198:algorithm.c   ****            *pch_spo2_valid  = 0; 
 199:algorithm.c   ****            return;
 200:algorithm.c   ****         }
 201:algorithm.c   ****         // 4 pt MA
ARM GAS  C:\Users\furka\AppData\Local\Temp\cc6thHdA.s 			page 5


 202:algorithm.c   ****         for(k=0; k< BUFFER_SIZE-MA4_SIZE; k++){
 203:algorithm.c   ****             an_x[k]=( an_x[k]+an_x[k+1]+ an_x[k+2]+ an_x[k+3])/(int32_t)4;
 204:algorithm.c   ****             an_y[k]=( an_y[k]+an_y[k+1]+ an_y[k+2]+ an_y[k+3])/(int32_t)4;
 205:algorithm.c   ****         }
 206:algorithm.c   **** 
 207:algorithm.c   ****         //using an_exact_ir_valley_locs , find ir-red DC andir-red AC for SPO2 calibration ratio
 208:algorithm.c   ****         //finding AC/DC maximum of raw ir * red between two valley locations
 209:algorithm.c   ****         n_ratio_average =0; 
 210:algorithm.c   ****         n_i_ratio_count =0; 
 211:algorithm.c   ****         
 212:algorithm.c   ****         for(k=0; k< 5; k++) an_ratio[k]=0;
 213:algorithm.c   ****         for (k=0; k< n_exact_ir_valley_locs_count; k++){
 214:algorithm.c   ****             if (an_exact_ir_valley_locs[k] > BUFFER_SIZE ){             
 215:algorithm.c   ****                 *pn_spo2 =  -999 ; // do not use SPO2 since valley loc is out of range
 216:algorithm.c   ****                 *pch_spo2_valid  = 0; 
 217:algorithm.c   ****                 return;
 218:algorithm.c   ****             }
 219:algorithm.c   ****         }
 220:algorithm.c   ****         // find max between two valley locations 
 221:algorithm.c   ****         // and use ratio betwen AC compoent of Ir & Red and DC compoent of Ir & Red for SPO2 
 222:algorithm.c   **** 
 223:algorithm.c   ****         for (k=0; k< n_exact_ir_valley_locs_count-1; k++){
 224:algorithm.c   ****             n_y_dc_max= -16777216 ; 
 225:algorithm.c   ****             n_x_dc_max= - 16777216; 
 226:algorithm.c   ****             if (an_exact_ir_valley_locs[k+1]-an_exact_ir_valley_locs[k] >10){
 227:algorithm.c   ****                 for (i=an_exact_ir_valley_locs[k]; i< an_exact_ir_valley_locs[k+1]; i++){
 228:algorithm.c   ****                     if (an_x[i]> n_x_dc_max) {n_x_dc_max =an_x[i];n_x_dc_max_idx =i; }
 229:algorithm.c   ****                     if (an_y[i]> n_y_dc_max) {n_y_dc_max =an_y[i];n_y_dc_max_idx=i;}
 230:algorithm.c   ****                 }
 231:algorithm.c   ****                 n_y_ac= (an_y[an_exact_ir_valley_locs[k+1]] - an_y[an_exact_ir_valley_locs[k] ] )*(
 232:algorithm.c   ****                 n_y_ac=  an_y[an_exact_ir_valley_locs[k]] + n_y_ac/ (an_exact_ir_valley_locs[k+1] -
 233:algorithm.c   ****             
 234:algorithm.c   ****             
 235:algorithm.c   ****                 n_y_ac=  an_y[n_y_dc_max_idx] - n_y_ac;    // subracting linear DC compoenents from
 236:algorithm.c   ****                 n_x_ac= (an_x[an_exact_ir_valley_locs[k+1]] - an_x[an_exact_ir_valley_locs[k] ] )*(
 237:algorithm.c   ****                 n_x_ac=  an_x[an_exact_ir_valley_locs[k]] + n_x_ac/ (an_exact_ir_valley_locs[k+1] -
 238:algorithm.c   ****                 n_x_ac=  an_x[n_y_dc_max_idx] - n_x_ac;      // subracting linear DC compoenents fr
 239:algorithm.c   ****                 n_nume=( n_y_ac *n_x_dc_max)>>7 ; //prepare X100 to preserve floating value
 240:algorithm.c   ****                 n_denom= ( n_x_ac *n_y_dc_max)>>7;
 241:algorithm.c   ****                 if (n_denom>0  && n_i_ratio_count <5 &&  n_nume != 0)
 242:algorithm.c   ****                 {   
 243:algorithm.c   ****                     an_ratio[n_i_ratio_count]= (n_nume*100)/n_denom ; //formular is ( n_y_ac *n_x_d
 244:algorithm.c   ****                     n_i_ratio_count++;
 245:algorithm.c   ****                 }
 246:algorithm.c   ****             }
 247:algorithm.c   ****         }
 248:algorithm.c   **** 
 249:algorithm.c   ****         maxim_sort_ascend(an_ratio, n_i_ratio_count);
 250:algorithm.c   ****         n_middle_idx= n_i_ratio_count/2;
 251:algorithm.c   **** 
 252:algorithm.c   ****         if (n_middle_idx >1)
 253:algorithm.c   ****             n_ratio_average =( an_ratio[n_middle_idx-1] +an_ratio[n_middle_idx])/2; // use median
 254:algorithm.c   ****         else
 255:algorithm.c   ****             n_ratio_average = an_ratio[n_middle_idx ];
 256:algorithm.c   **** 
 257:algorithm.c   ****         if( n_ratio_average>2 && n_ratio_average <184){
 258:algorithm.c   ****             n_spo2_calc= uch_spo2_table[n_ratio_average] ;
ARM GAS  C:\Users\furka\AppData\Local\Temp\cc6thHdA.s 			page 6


 259:algorithm.c   ****             *pn_spo2 = n_spo2_calc ;
 260:algorithm.c   ****             *pch_spo2_valid  = 1;//  float_SPO2 =  -45.060*n_ratio_average* n_ratio_average/10000 +
 261:algorithm.c   ****         }
 262:algorithm.c   ****         else{
 263:algorithm.c   ****             *pn_spo2 =  -999 ; // do not use SPO2 since signal ratio is out of range
 264:algorithm.c   ****             *pch_spo2_valid  = 0; 
 265:algorithm.c   ****         }
 266:algorithm.c   ****     }
 267:algorithm.c   **** 
 268:algorithm.c   **** 
 269:algorithm.c   ****     void maxim_find_peaks(int32_t *pn_locs, int32_t *pn_npks, int32_t *pn_x, int32_t n_size, int32_
 270:algorithm.c   ****     /**
 271:algorithm.c   ****     * \brief        Find peaks
 272:algorithm.c   ****     * \par          Details
 273:algorithm.c   ****     *               Find at most MAX_NUM peaks above MIN_HEIGHT separated by at least MIN_DISTANCE
 274:algorithm.c   ****     *
 275:algorithm.c   ****     * \retval       None
 276:algorithm.c   ****     */
 277:algorithm.c   ****     {
 278:algorithm.c   ****         maxim_peaks_above_min_height( pn_locs, pn_npks, pn_x, n_size, n_min_height );
 279:algorithm.c   ****         maxim_remove_close_peaks( pn_locs, pn_npks, pn_x, n_min_distance );
 280:algorithm.c   ****         *pn_npks = min( *pn_npks, n_max_num );
 281:algorithm.c   ****     }
 282:algorithm.c   **** 
 283:algorithm.c   ****     void maxim_peaks_above_min_height(int32_t *pn_locs, int32_t *pn_npks, int32_t  *pn_x, int32_t n
 284:algorithm.c   ****     /**
 285:algorithm.c   ****     * \brief        Find peaks above n_min_height
 286:algorithm.c   ****     * \par          Details
 287:algorithm.c   ****     *               Find all peaks above MIN_HEIGHT
 288:algorithm.c   ****     *
 289:algorithm.c   ****     * \retval       None
 290:algorithm.c   ****     */
 291:algorithm.c   ****     {
  28              		.loc 1 291 0
  29              		.cfi_startproc
  30              		@ args = 4, pretend = 0, frame = 0
  31              		@ frame_needed = 0, uses_anonymous_args = 0
  32              	.LVL0:
  33 0000 F0B5     		push	{r4, r5, r6, r7, lr}
  34              		.cfi_def_cfa_offset 20
  35              		.cfi_offset 4, -20
  36              		.cfi_offset 5, -16
  37              		.cfi_offset 6, -12
  38              		.cfi_offset 7, -8
  39              		.cfi_offset 14, -4
  40 0002 8446     		mov	ip, r0
  41 0004 DDF814E0 		ldr	lr, [sp, #20]
  42              	.LVL1:
 292:algorithm.c   ****         int32_t i = 1, n_width;
 293:algorithm.c   ****         *pn_npks = 0;
  43              		.loc 1 293 0
  44 0008 0024     		movs	r4, #0
  45 000a 0C60     		str	r4, [r1]
 292:algorithm.c   ****         int32_t i = 1, n_width;
  46              		.loc 1 292 0
  47 000c 0126     		movs	r6, #1
 294:algorithm.c   ****         
ARM GAS  C:\Users\furka\AppData\Local\Temp\cc6thHdA.s 			page 7


 295:algorithm.c   ****         while (i < n_size-1){
  48              		.loc 1 295 0
  49 000e 28E0     		b	.L2
  50              	.LVL2:
  51              	.L8:
 296:algorithm.c   ****             if (pn_x[i] > n_min_height && pn_x[i] > pn_x[i-1]){            // find left edge of pot
  52              		.loc 1 296 0
  53 0010 52F82670 		ldr	r7, [r2, r6, lsl #2]
  54 0014 7745     		cmp	r7, lr
  55 0016 1FDD     		ble	.L3
  56              		.loc 1 296 0 is_stmt 0 discriminator 1
  57 0018 06F18044 		add	r4, r6, #1073741824
  58 001c 013C     		subs	r4, r4, #1
  59 001e 52F82440 		ldr	r4, [r2, r4, lsl #2]
  60 0022 A742     		cmp	r7, r4
  61 0024 02DC     		bgt	.L9
  62 0026 17E0     		b	.L3
  63              	.LVL3:
  64              	.L6:
 297:algorithm.c   ****                 n_width = 1;
 298:algorithm.c   ****                 while (i+n_width < n_size && pn_x[i] == pn_x[i+n_width])    // find flat peaks
 299:algorithm.c   ****                     n_width++;
  65              		.loc 1 299 0 is_stmt 1
  66 0028 0135     		adds	r5, r5, #1
  67              	.LVL4:
  68 002a 00E0     		b	.L4
  69              	.LVL5:
  70              	.L9:
  71 002c 0125     		movs	r5, #1
  72              	.L4:
  73              	.LVL6:
 298:algorithm.c   ****                     n_width++;
  74              		.loc 1 298 0
  75 002e 7419     		adds	r4, r6, r5
  76 0030 A342     		cmp	r3, r4
  77 0032 03DD     		ble	.L5
 298:algorithm.c   ****                     n_width++;
  78              		.loc 1 298 0 is_stmt 0 discriminator 1
  79 0034 52F82400 		ldr	r0, [r2, r4, lsl #2]
  80 0038 8742     		cmp	r7, r0
  81 003a F5D0     		beq	.L6
  82              	.L5:
 300:algorithm.c   ****                 if (pn_x[i] > pn_x[i+n_width] && (*pn_npks) < 15 ){                            // f
  83              		.loc 1 300 0 is_stmt 1
  84 003c 52F82400 		ldr	r0, [r2, r4, lsl #2]
  85 0040 8742     		cmp	r7, r0
  86 0042 0BDD     		ble	.L10
  87              		.loc 1 300 0 is_stmt 0 discriminator 1
  88 0044 0F68     		ldr	r7, [r1]
  89 0046 0E2F     		cmp	r7, #14
  90 0048 0ADC     		bgt	.L11
 301:algorithm.c   ****                     pn_locs[(*pn_npks)++] = i;        
  91              		.loc 1 301 0 is_stmt 1
  92 004a 7C1C     		adds	r4, r7, #1
  93 004c 0C60     		str	r4, [r1]
  94 004e 4CF82760 		str	r6, [ip, r7, lsl #2]
 302:algorithm.c   ****                     // for flat peaks, peak location is left edge
ARM GAS  C:\Users\furka\AppData\Local\Temp\cc6thHdA.s 			page 8


 303:algorithm.c   ****                     i += n_width+1;
  95              		.loc 1 303 0
  96 0052 0135     		adds	r5, r5, #1
  97              	.LVL7:
  98 0054 2E44     		add	r6, r6, r5
  99              	.LVL8:
 100 0056 04E0     		b	.L2
 101              	.LVL9:
 102              	.L3:
 304:algorithm.c   ****                 }
 305:algorithm.c   ****                 else
 306:algorithm.c   ****                     i += n_width;
 307:algorithm.c   ****             }
 308:algorithm.c   ****             else
 309:algorithm.c   ****                 i++;
 103              		.loc 1 309 0
 104 0058 0136     		adds	r6, r6, #1
 105              	.LVL10:
 106 005a 02E0     		b	.L2
 107              	.LVL11:
 108              	.L10:
 306:algorithm.c   ****             }
 109              		.loc 1 306 0
 110 005c 2646     		mov	r6, r4
 111              	.LVL12:
 112 005e 00E0     		b	.L2
 113              	.LVL13:
 114              	.L11:
 115 0060 2646     		mov	r6, r4
 116              	.LVL14:
 117              	.L2:
 295:algorithm.c   ****             if (pn_x[i] > n_min_height && pn_x[i] > pn_x[i-1]){            // find left edge of pot
 118              		.loc 1 295 0
 119 0062 5C1E     		subs	r4, r3, #1
 120 0064 A642     		cmp	r6, r4
 121 0066 D3DB     		blt	.L8
 310:algorithm.c   ****         }
 311:algorithm.c   ****     }
 122              		.loc 1 311 0
 123 0068 F0BD     		pop	{r4, r5, r6, r7, pc}
 124              		.cfi_endproc
 125              	.LFE65:
 126              		.size	maxim_peaks_above_min_height, .-maxim_peaks_above_min_height
 127 006a 00BF     		.section	.text.maxim_sort_ascend,"ax",%progbits
 128              		.align	2
 129              		.global	maxim_sort_ascend
 130              		.thumb
 131              		.thumb_func
 132              		.type	maxim_sort_ascend, %function
 133              	maxim_sort_ascend:
 134              	.LFB67:
 312:algorithm.c   **** 
 313:algorithm.c   **** 
 314:algorithm.c   ****     void maxim_remove_close_peaks(int32_t *pn_locs, int32_t *pn_npks, int32_t *pn_x, int32_t n_min_
 315:algorithm.c   ****     /**
 316:algorithm.c   ****     * \brief        Remove peaks
 317:algorithm.c   ****     * \par          Details
ARM GAS  C:\Users\furka\AppData\Local\Temp\cc6thHdA.s 			page 9


 318:algorithm.c   ****     *               Remove peaks separated by less than MIN_DISTANCE
 319:algorithm.c   ****     *
 320:algorithm.c   ****     * \retval       None
 321:algorithm.c   ****     */
 322:algorithm.c   ****     {
 323:algorithm.c   ****         
 324:algorithm.c   ****         int32_t i, j, n_old_npks, n_dist;
 325:algorithm.c   ****         
 326:algorithm.c   ****         /* Order peaks from large to small */
 327:algorithm.c   ****         maxim_sort_indices_descend( pn_x, pn_locs, *pn_npks );
 328:algorithm.c   **** 
 329:algorithm.c   ****         for ( i = -1; i < *pn_npks; i++ ){
 330:algorithm.c   ****             n_old_npks = *pn_npks;
 331:algorithm.c   ****             *pn_npks = i+1;
 332:algorithm.c   ****             for ( j = i+1; j < n_old_npks; j++ ){
 333:algorithm.c   ****                 n_dist =  pn_locs[j] - ( i == -1 ? -1 : pn_locs[i] ); // lag-zero peak of autocorr 
 334:algorithm.c   ****                 if ( n_dist > n_min_distance || n_dist < -n_min_distance )
 335:algorithm.c   ****                     pn_locs[(*pn_npks)++] = pn_locs[j];
 336:algorithm.c   ****             }
 337:algorithm.c   ****         }
 338:algorithm.c   **** 
 339:algorithm.c   ****         // Resort indices longo ascending order
 340:algorithm.c   ****         maxim_sort_ascend( pn_locs, *pn_npks );
 341:algorithm.c   ****     }
 342:algorithm.c   **** 
 343:algorithm.c   ****     void maxim_sort_ascend(int32_t *pn_x,int32_t n_size) 
 344:algorithm.c   ****     /**
 345:algorithm.c   ****     * \brief        Sort array
 346:algorithm.c   ****     * \par          Details
 347:algorithm.c   ****     *               Sort array in ascending order (insertion sort algorithm)
 348:algorithm.c   ****     *
 349:algorithm.c   ****     * \retval       None
 350:algorithm.c   ****     */
 351:algorithm.c   ****     {
 135              		.loc 1 351 0
 136              		.cfi_startproc
 137              		@ args = 0, pretend = 0, frame = 0
 138              		@ frame_needed = 0, uses_anonymous_args = 0
 139              		@ link register save eliminated.
 140              	.LVL15:
 141 0000 30B4     		push	{r4, r5}
 142              		.cfi_def_cfa_offset 8
 143              		.cfi_offset 4, -8
 144              		.cfi_offset 5, -4
 145              	.LVL16:
 352:algorithm.c   ****         int32_t i, j, n_temp;
 353:algorithm.c   ****         for (i = 1; i < n_size; i++) {
 146              		.loc 1 353 0
 147 0002 0125     		movs	r5, #1
 148 0004 12E0     		b	.L14
 149              	.LVL17:
 150              	.L18:
 354:algorithm.c   ****             n_temp = pn_x[i];
 151              		.loc 1 354 0
 152 0006 50F82540 		ldr	r4, [r0, r5, lsl #2]
 153              	.LVL18:
 355:algorithm.c   ****             for (j = i; j > 0 && n_temp < pn_x[j-1]; j--)
ARM GAS  C:\Users\furka\AppData\Local\Temp\cc6thHdA.s 			page 10


 154              		.loc 1 355 0
 155 000a 2B46     		mov	r3, r5
 156 000c 02E0     		b	.L15
 157              	.LVL19:
 158              	.L17:
 356:algorithm.c   ****                 pn_x[j] = pn_x[j-1];
 159              		.loc 1 356 0 discriminator 4
 160 000e 40F82320 		str	r2, [r0, r3, lsl #2]
 355:algorithm.c   ****             for (j = i; j > 0 && n_temp < pn_x[j-1]; j--)
 161              		.loc 1 355 0 discriminator 4
 162 0012 013B     		subs	r3, r3, #1
 163              	.LVL20:
 164              	.L15:
 355:algorithm.c   ****             for (j = i; j > 0 && n_temp < pn_x[j-1]; j--)
 165              		.loc 1 355 0 is_stmt 0 discriminator 1
 166 0014 002B     		cmp	r3, #0
 167 0016 06DD     		ble	.L16
 355:algorithm.c   ****             for (j = i; j > 0 && n_temp < pn_x[j-1]; j--)
 168              		.loc 1 355 0 discriminator 3
 169 0018 03F18042 		add	r2, r3, #1073741824
 170 001c 013A     		subs	r2, r2, #1
 171 001e 50F82220 		ldr	r2, [r0, r2, lsl #2]
 172 0022 9442     		cmp	r4, r2
 173 0024 F3DB     		blt	.L17
 174              	.L16:
 357:algorithm.c   ****             pn_x[j] = n_temp;
 175              		.loc 1 357 0 is_stmt 1 discriminator 2
 176 0026 40F82340 		str	r4, [r0, r3, lsl #2]
 353:algorithm.c   ****             n_temp = pn_x[i];
 177              		.loc 1 353 0 discriminator 2
 178 002a 0135     		adds	r5, r5, #1
 179              	.LVL21:
 180              	.L14:
 353:algorithm.c   ****             n_temp = pn_x[i];
 181              		.loc 1 353 0 is_stmt 0 discriminator 1
 182 002c 8D42     		cmp	r5, r1
 183 002e EADB     		blt	.L18
 358:algorithm.c   ****         }
 359:algorithm.c   ****     }
 184              		.loc 1 359 0 is_stmt 1
 185 0030 30BC     		pop	{r4, r5}
 186              		.cfi_restore 5
 187              		.cfi_restore 4
 188              		.cfi_def_cfa_offset 0
 189              	.LVL22:
 190 0032 7047     		bx	lr
 191              		.cfi_endproc
 192              	.LFE67:
 193              		.size	maxim_sort_ascend, .-maxim_sort_ascend
 194              		.section	.text.maxim_sort_indices_descend,"ax",%progbits
 195              		.align	2
 196              		.global	maxim_sort_indices_descend
 197              		.thumb
 198              		.thumb_func
 199              		.type	maxim_sort_indices_descend, %function
 200              	maxim_sort_indices_descend:
 201              	.LFB68:
ARM GAS  C:\Users\furka\AppData\Local\Temp\cc6thHdA.s 			page 11


 360:algorithm.c   **** 
 361:algorithm.c   ****     void maxim_sort_indices_descend(int32_t *pn_x, int32_t *pn_indx, int32_t n_size)
 362:algorithm.c   ****     /**
 363:algorithm.c   ****     * \brief        Sort indices
 364:algorithm.c   ****     * \par          Details
 365:algorithm.c   ****     *               Sort indices according to descending order (insertion sort algorithm)
 366:algorithm.c   ****     *
 367:algorithm.c   ****     * \retval       None
 368:algorithm.c   ****     */ 
 369:algorithm.c   ****     {
 202              		.loc 1 369 0
 203              		.cfi_startproc
 204              		@ args = 0, pretend = 0, frame = 0
 205              		@ frame_needed = 0, uses_anonymous_args = 0
 206              	.LVL23:
 207 0000 F0B5     		push	{r4, r5, r6, r7, lr}
 208              		.cfi_def_cfa_offset 20
 209              		.cfi_offset 4, -20
 210              		.cfi_offset 5, -16
 211              		.cfi_offset 6, -12
 212              		.cfi_offset 7, -8
 213              		.cfi_offset 14, -4
 214              	.LVL24:
 370:algorithm.c   ****         int32_t i, j, n_temp;
 371:algorithm.c   ****         for (i = 1; i < n_size; i++) {
 215              		.loc 1 371 0
 216 0002 4FF0010E 		mov	lr, #1
 217 0006 17E0     		b	.L21
 218              	.LVL25:
 219              	.L25:
 372:algorithm.c   ****             n_temp = pn_indx[i];
 220              		.loc 1 372 0
 221 0008 51F82E70 		ldr	r7, [r1, lr, lsl #2]
 222              	.LVL26:
 373:algorithm.c   ****             for (j = i; j > 0 && pn_x[n_temp] > pn_x[pn_indx[j-1]]; j--)
 223              		.loc 1 373 0
 224 000c 7346     		mov	r3, lr
 225 000e 02E0     		b	.L22
 226              	.LVL27:
 227              	.L24:
 374:algorithm.c   ****                 pn_indx[j] = pn_indx[j-1];
 228              		.loc 1 374 0 discriminator 4
 229 0010 41F82340 		str	r4, [r1, r3, lsl #2]
 373:algorithm.c   ****             for (j = i; j > 0 && pn_x[n_temp] > pn_x[pn_indx[j-1]]; j--)
 230              		.loc 1 373 0 discriminator 4
 231 0014 013B     		subs	r3, r3, #1
 232              	.LVL28:
 233              	.L22:
 373:algorithm.c   ****             for (j = i; j > 0 && pn_x[n_temp] > pn_x[pn_indx[j-1]]; j--)
 234              		.loc 1 373 0 is_stmt 0 discriminator 1
 235 0016 002B     		cmp	r3, #0
 236 0018 0ADD     		ble	.L23
 373:algorithm.c   ****             for (j = i; j > 0 && pn_x[n_temp] > pn_x[pn_indx[j-1]]; j--)
 237              		.loc 1 373 0 discriminator 3
 238 001a 50F82760 		ldr	r6, [r0, r7, lsl #2]
 239 001e 03F18044 		add	r4, r3, #1073741824
 240 0022 013C     		subs	r4, r4, #1
ARM GAS  C:\Users\furka\AppData\Local\Temp\cc6thHdA.s 			page 12


 241 0024 51F82440 		ldr	r4, [r1, r4, lsl #2]
 242 0028 50F82450 		ldr	r5, [r0, r4, lsl #2]
 243 002c AE42     		cmp	r6, r5
 244 002e EFDC     		bgt	.L24
 245              	.L23:
 375:algorithm.c   ****             pn_indx[j] = n_temp;
 246              		.loc 1 375 0 is_stmt 1 discriminator 2
 247 0030 41F82370 		str	r7, [r1, r3, lsl #2]
 371:algorithm.c   ****             n_temp = pn_indx[i];
 248              		.loc 1 371 0 discriminator 2
 249 0034 0EF1010E 		add	lr, lr, #1
 250              	.LVL29:
 251              	.L21:
 371:algorithm.c   ****             n_temp = pn_indx[i];
 252              		.loc 1 371 0 is_stmt 0 discriminator 1
 253 0038 9645     		cmp	lr, r2
 254 003a E5DB     		blt	.L25
 376:algorithm.c   ****         }
 377:algorithm.c   ****     }
 255              		.loc 1 377 0 is_stmt 1
 256 003c F0BD     		pop	{r4, r5, r6, r7, pc}
 257              		.cfi_endproc
 258              	.LFE68:
 259              		.size	maxim_sort_indices_descend, .-maxim_sort_indices_descend
 260 003e 00BF     		.section	.text.maxim_remove_close_peaks,"ax",%progbits
 261              		.align	2
 262              		.global	maxim_remove_close_peaks
 263              		.thumb
 264              		.thumb_func
 265              		.type	maxim_remove_close_peaks, %function
 266              	maxim_remove_close_peaks:
 267              	.LFB66:
 322:algorithm.c   ****         
 268              		.loc 1 322 0
 269              		.cfi_startproc
 270              		@ args = 0, pretend = 0, frame = 0
 271              		@ frame_needed = 0, uses_anonymous_args = 0
 272              	.LVL30:
 273 0000 F8B5     		push	{r3, r4, r5, r6, r7, lr}
 274              		.cfi_def_cfa_offset 24
 275              		.cfi_offset 3, -24
 276              		.cfi_offset 4, -20
 277              		.cfi_offset 5, -16
 278              		.cfi_offset 6, -12
 279              		.cfi_offset 7, -8
 280              		.cfi_offset 14, -4
 281 0002 0446     		mov	r4, r0
 282 0004 0D46     		mov	r5, r1
 283 0006 1046     		mov	r0, r2
 284              	.LVL31:
 285 0008 1E46     		mov	r6, r3
 327:algorithm.c   **** 
 286              		.loc 1 327 0
 287 000a 0A68     		ldr	r2, [r1]
 288              	.LVL32:
 289 000c 2146     		mov	r1, r4
 290              	.LVL33:
ARM GAS  C:\Users\furka\AppData\Local\Temp\cc6thHdA.s 			page 13


 291 000e FFF7FEFF 		bl	maxim_sort_indices_descend
 292              	.LVL34:
 329:algorithm.c   ****             n_old_npks = *pn_npks;
 293              		.loc 1 329 0
 294 0012 4FF0FF30 		mov	r0, #-1
 295 0016 22E0     		b	.L28
 296              	.LVL35:
 297              	.L34:
 331:algorithm.c   ****             for ( j = i+1; j < n_old_npks; j++ ){
 298              		.loc 1 331 0
 299 0018 00F1010C 		add	ip, r0, #1
 300 001c C5F800C0 		str	ip, [r5]
 301              	.LVL36:
 332:algorithm.c   ****                 n_dist =  pn_locs[j] - ( i == -1 ? -1 : pn_locs[i] ); // lag-zero peak of autocorr 
 302              		.loc 1 332 0
 303 0020 6346     		mov	r3, ip
 304 0022 19E0     		b	.L29
 305              	.LVL37:
 306              	.L33:
 333:algorithm.c   ****                 if ( n_dist > n_min_distance || n_dist < -n_min_distance )
 307              		.loc 1 333 0
 308 0024 4FEA830E 		lsl	lr, r3, #2
 309 0028 54F82320 		ldr	r2, [r4, r3, lsl #2]
 310 002c B0F1FF3F 		cmp	r0, #-1
 311 0030 02D0     		beq	.L35
 333:algorithm.c   ****                 if ( n_dist > n_min_distance || n_dist < -n_min_distance )
 312              		.loc 1 333 0 is_stmt 0 discriminator 1
 313 0032 54F82070 		ldr	r7, [r4, r0, lsl #2]
 314 0036 01E0     		b	.L30
 315              	.L35:
 333:algorithm.c   ****                 if ( n_dist > n_min_distance || n_dist < -n_min_distance )
 316              		.loc 1 333 0
 317 0038 4FF0FF37 		mov	r7, #-1
 318              	.L30:
 333:algorithm.c   ****                 if ( n_dist > n_min_distance || n_dist < -n_min_distance )
 319              		.loc 1 333 0 discriminator 4
 320 003c D21B     		subs	r2, r2, r7
 321              	.LVL38:
 334:algorithm.c   ****                     pn_locs[(*pn_npks)++] = pn_locs[j];
 322              		.loc 1 334 0 is_stmt 1 discriminator 4
 323 003e B242     		cmp	r2, r6
 324 0040 02DC     		bgt	.L31
 334:algorithm.c   ****                     pn_locs[(*pn_npks)++] = pn_locs[j];
 325              		.loc 1 334 0 is_stmt 0 discriminator 1
 326 0042 7742     		negs	r7, r6
 327 0044 BA42     		cmp	r2, r7
 328 0046 06DA     		bge	.L32
 329              	.L31:
 335:algorithm.c   ****             }
 330              		.loc 1 335 0 is_stmt 1
 331 0048 2A68     		ldr	r2, [r5]
 332              	.LVL39:
 333 004a 571C     		adds	r7, r2, #1
 334 004c 2F60     		str	r7, [r5]
 335 004e 54F80E70 		ldr	r7, [r4, lr]
 336 0052 44F82270 		str	r7, [r4, r2, lsl #2]
 337              	.L32:
ARM GAS  C:\Users\furka\AppData\Local\Temp\cc6thHdA.s 			page 14


 332:algorithm.c   ****                 n_dist =  pn_locs[j] - ( i == -1 ? -1 : pn_locs[i] ); // lag-zero peak of autocorr 
 338              		.loc 1 332 0 discriminator 2
 339 0056 0133     		adds	r3, r3, #1
 340              	.LVL40:
 341              	.L29:
 332:algorithm.c   ****                 n_dist =  pn_locs[j] - ( i == -1 ? -1 : pn_locs[i] ); // lag-zero peak of autocorr 
 342              		.loc 1 332 0 is_stmt 0 discriminator 1
 343 0058 8B42     		cmp	r3, r1
 344 005a E3DB     		blt	.L33
 329:algorithm.c   ****             n_old_npks = *pn_npks;
 345              		.loc 1 329 0 is_stmt 1
 346 005c 6046     		mov	r0, ip
 347              	.LVL41:
 348              	.L28:
 329:algorithm.c   ****             n_old_npks = *pn_npks;
 349              		.loc 1 329 0 is_stmt 0 discriminator 1
 350 005e 2968     		ldr	r1, [r5]
 351 0060 8842     		cmp	r0, r1
 352 0062 D9DB     		blt	.L34
 340:algorithm.c   ****     }
 353              		.loc 1 340 0 is_stmt 1
 354 0064 2046     		mov	r0, r4
 355              	.LVL42:
 356 0066 FFF7FEFF 		bl	maxim_sort_ascend
 357              	.LVL43:
 358 006a F8BD     		pop	{r3, r4, r5, r6, r7, pc}
 359              		.cfi_endproc
 360              	.LFE66:
 361              		.size	maxim_remove_close_peaks, .-maxim_remove_close_peaks
 362              		.section	.text.maxim_find_peaks,"ax",%progbits
 363              		.align	2
 364              		.global	maxim_find_peaks
 365              		.thumb
 366              		.thumb_func
 367              		.type	maxim_find_peaks, %function
 368              	maxim_find_peaks:
 369              	.LFB64:
 277:algorithm.c   ****         maxim_peaks_above_min_height( pn_locs, pn_npks, pn_x, n_size, n_min_height );
 370              		.loc 1 277 0
 371              		.cfi_startproc
 372              		@ args = 12, pretend = 0, frame = 0
 373              		@ frame_needed = 0, uses_anonymous_args = 0
 374              	.LVL44:
 375 0000 F0B5     		push	{r4, r5, r6, r7, lr}
 376              		.cfi_def_cfa_offset 20
 377              		.cfi_offset 4, -20
 378              		.cfi_offset 5, -16
 379              		.cfi_offset 6, -12
 380              		.cfi_offset 7, -8
 381              		.cfi_offset 14, -4
 382 0002 83B0     		sub	sp, sp, #12
 383              		.cfi_def_cfa_offset 32
 384 0004 0546     		mov	r5, r0
 385 0006 0C46     		mov	r4, r1
 386 0008 1646     		mov	r6, r2
 278:algorithm.c   ****         maxim_remove_close_peaks( pn_locs, pn_npks, pn_x, n_min_distance );
 387              		.loc 1 278 0
ARM GAS  C:\Users\furka\AppData\Local\Temp\cc6thHdA.s 			page 15


 388 000a 089F     		ldr	r7, [sp, #32]
 389 000c 0097     		str	r7, [sp]
 390 000e FFF7FEFF 		bl	maxim_peaks_above_min_height
 391              	.LVL45:
 279:algorithm.c   ****         *pn_npks = min( *pn_npks, n_max_num );
 392              		.loc 1 279 0
 393 0012 099B     		ldr	r3, [sp, #36]
 394 0014 3246     		mov	r2, r6
 395 0016 2146     		mov	r1, r4
 396 0018 2846     		mov	r0, r5
 397 001a FFF7FEFF 		bl	maxim_remove_close_peaks
 398              	.LVL46:
 280:algorithm.c   ****     }
 399              		.loc 1 280 0
 400 001e 2268     		ldr	r2, [r4]
 401 0020 0A9B     		ldr	r3, [sp, #40]
 402 0022 9342     		cmp	r3, r2
 403 0024 A8BF     		it	ge
 404 0026 1346     		movge	r3, r2
 405 0028 2360     		str	r3, [r4]
 281:algorithm.c   **** 
 406              		.loc 1 281 0
 407 002a 03B0     		add	sp, sp, #12
 408              		.cfi_def_cfa_offset 20
 409              		@ sp needed
 410 002c F0BD     		pop	{r4, r5, r6, r7, pc}
 411              		.cfi_endproc
 412              	.LFE64:
 413              		.size	maxim_find_peaks, .-maxim_find_peaks
 414 002e 00BF     		.section	.text.maxim_heart_rate_and_oxygen_saturation,"ax",%progbits
 415              		.align	2
 416              		.global	maxim_heart_rate_and_oxygen_saturation
 417              		.thumb
 418              		.thumb_func
 419              		.type	maxim_heart_rate_and_oxygen_saturation, %function
 420              	maxim_heart_rate_and_oxygen_saturation:
 421              	.LFB63:
  92:algorithm.c   ****         static  int32_t an_dx[ BUFFER_SIZE-MA4_SIZE]; // delta
 422              		.loc 1 92 0
 423              		.cfi_startproc
 424              		@ args = 12, pretend = 0, frame = 216
 425              		@ frame_needed = 0, uses_anonymous_args = 0
 426              	.LVL47:
 427 0000 2DE9F04F 		push	{r4, r5, r6, r7, r8, r9, r10, fp, lr}
 428              		.cfi_def_cfa_offset 36
 429              		.cfi_offset 4, -36
 430              		.cfi_offset 5, -32
 431              		.cfi_offset 6, -28
 432              		.cfi_offset 7, -24
 433              		.cfi_offset 8, -20
 434              		.cfi_offset 9, -16
 435              		.cfi_offset 10, -12
 436              		.cfi_offset 11, -8
 437              		.cfi_offset 14, -4
 438 0004 BBB0     		sub	sp, sp, #236
 439              		.cfi_def_cfa_offset 272
 440 0006 0546     		mov	r5, r0
ARM GAS  C:\Users\furka\AppData\Local\Temp\cc6thHdA.s 			page 16


 441 0008 0C46     		mov	r4, r1
 442 000a 1646     		mov	r6, r2
 443 000c 0593     		str	r3, [sp, #20]
 444 000e DDF81481 		ldr	r8, [sp, #276]
 445 0012 DDF81891 		ldr	r9, [sp, #280]
 446              	.LVL48:
 114:algorithm.c   ****         un_ir_mean =un_ir_mean/n_ir_buffer_length ;
 447              		.loc 1 114 0
 448 0016 0023     		movs	r3, #0
 449              	.LVL49:
 113:algorithm.c   ****         for (k=0 ; k<n_ir_buffer_length ; k++ ) un_ir_mean += pun_ir_buffer[k] ;
 450              		.loc 1 113 0
 451 0018 1846     		mov	r0, r3
 452              	.LVL50:
 114:algorithm.c   ****         un_ir_mean =un_ir_mean/n_ir_buffer_length ;
 453              		.loc 1 114 0
 454 001a 03E0     		b	.L40
 455              	.LVL51:
 456              	.L41:
 114:algorithm.c   ****         un_ir_mean =un_ir_mean/n_ir_buffer_length ;
 457              		.loc 1 114 0 is_stmt 0 discriminator 3
 458 001c 55F82320 		ldr	r2, [r5, r3, lsl #2]
 459 0020 1044     		add	r0, r0, r2
 460              	.LVL52:
 461 0022 0133     		adds	r3, r3, #1
 462              	.LVL53:
 463              	.L40:
 114:algorithm.c   ****         un_ir_mean =un_ir_mean/n_ir_buffer_length ;
 464              		.loc 1 114 0 discriminator 1
 465 0024 A342     		cmp	r3, r4
 466 0026 F9DB     		blt	.L41
 115:algorithm.c   ****         for (k=0 ; k<n_ir_buffer_length ; k++ )  an_x[k] =  pun_ir_buffer[k] - un_ir_mean ; 
 467              		.loc 1 115 0 is_stmt 1
 468 0028 B0FBF4F0 		udiv	r0, r0, r4
 469              	.LVL54:
 116:algorithm.c   ****         
 470              		.loc 1 116 0
 471 002c 0023     		movs	r3, #0
 472 002e 06E0     		b	.L42
 473              	.LVL55:
 474              	.L43:
 116:algorithm.c   ****         
 475              		.loc 1 116 0 is_stmt 0 discriminator 3
 476 0030 55F82320 		ldr	r2, [r5, r3, lsl #2]
 477 0034 121A     		subs	r2, r2, r0
 478 0036 C549     		ldr	r1, .L103
 479 0038 41F82320 		str	r2, [r1, r3, lsl #2]
 480 003c 0133     		adds	r3, r3, #1
 481              	.LVL56:
 482              	.L42:
 116:algorithm.c   ****         
 483              		.loc 1 116 0 discriminator 1
 484 003e A342     		cmp	r3, r4
 485 0040 F6DB     		blt	.L43
 486 0042 0021     		movs	r1, #0
 487 0044 15E0     		b	.L44
 488              	.LVL57:
ARM GAS  C:\Users\furka\AppData\Local\Temp\cc6thHdA.s 			page 17


 489              	.L46:
 120:algorithm.c   ****             an_x[k]=  n_denom/(int32_t)4; 
 490              		.loc 1 120 0 is_stmt 1 discriminator 3
 491 0046 C14A     		ldr	r2, .L103
 492 0048 52F82170 		ldr	r7, [r2, r1, lsl #2]
 493 004c 481C     		adds	r0, r1, #1
 494 004e 52F82030 		ldr	r3, [r2, r0, lsl #2]
 495 0052 1F44     		add	r7, r7, r3
 496 0054 8B1C     		adds	r3, r1, #2
 497 0056 52F82330 		ldr	r3, [r2, r3, lsl #2]
 498 005a 3B44     		add	r3, r3, r7
 499 005c CF1C     		adds	r7, r1, #3
 500 005e 52F82720 		ldr	r2, [r2, r7, lsl #2]
 121:algorithm.c   ****         }
 501              		.loc 1 121 0 discriminator 3
 502 0062 9B18     		adds	r3, r3, r2
 503 0064 00D5     		bpl	.L45
 504 0066 0333     		adds	r3, r3, #3
 505              	.L45:
 506 0068 9B10     		asrs	r3, r3, #2
 507 006a B84A     		ldr	r2, .L103
 508 006c 42F82130 		str	r3, [r2, r1, lsl #2]
 509              	.LVL58:
 119:algorithm.c   ****             n_denom= ( an_x[k]+an_x[k+1]+ an_x[k+2]+ an_x[k+3]);
 510              		.loc 1 119 0 discriminator 3
 511 0070 0146     		mov	r1, r0
 512              	.LVL59:
 513              	.L44:
 119:algorithm.c   ****             n_denom= ( an_x[k]+an_x[k+1]+ an_x[k+2]+ an_x[k+3]);
 514              		.loc 1 119 0 is_stmt 0 discriminator 1
 515 0072 B1F5F87F 		cmp	r1, #496
 516 0076 E6DB     		blt	.L46
 517 0078 0023     		movs	r3, #0
 518 007a 0BE0     		b	.L47
 519              	.LVL60:
 520              	.L48:
 127:algorithm.c   **** 
 521              		.loc 1 127 0 is_stmt 1 discriminator 3
 522 007c 581C     		adds	r0, r3, #1
 523 007e B34A     		ldr	r2, .L103
 524 0080 52F82010 		ldr	r1, [r2, r0, lsl #2]
 525 0084 52F82370 		ldr	r7, [r2, r3, lsl #2]
 526 0088 C91B     		subs	r1, r1, r7
 527 008a 02EB8302 		add	r2, r2, r3, lsl #2
 528 008e C2F8D017 		str	r1, [r2, #2000]
 529              	.LVL61:
 126:algorithm.c   ****             an_dx[k]= (an_x[k+1]- an_x[k]);
 530              		.loc 1 126 0 discriminator 3
 531 0092 0346     		mov	r3, r0
 532              	.LVL62:
 533              	.L47:
 126:algorithm.c   ****             an_dx[k]= (an_x[k+1]- an_x[k]);
 534              		.loc 1 126 0 is_stmt 0 discriminator 1
 535 0094 B3F5F77F 		cmp	r3, #494
 536 0098 F0DD     		ble	.L48
 537 009a 0022     		movs	r2, #0
 538 009c 0FE0     		b	.L49
ARM GAS  C:\Users\furka\AppData\Local\Temp\cc6thHdA.s 			page 18


 539              	.LVL63:
 540              	.L50:
 131:algorithm.c   ****         }
 541              		.loc 1 131 0 is_stmt 1 discriminator 3
 542 009e AB49     		ldr	r1, .L103
 543 00a0 01EB8200 		add	r0, r1, r2, lsl #2
 544 00a4 D0F8D077 		ldr	r7, [r0, #2000]
 545 00a8 0132     		adds	r2, r2, #1
 546              	.LVL64:
 547 00aa 01EB8201 		add	r1, r1, r2, lsl #2
 548 00ae D1F8D037 		ldr	r3, [r1, #2000]
 549 00b2 3B44     		add	r3, r3, r7
 550 00b4 03EBD373 		add	r3, r3, r3, lsr #31
 551 00b8 5B10     		asrs	r3, r3, #1
 552 00ba C0F8D037 		str	r3, [r0, #2000]
 553              	.LVL65:
 554              	.L49:
 130:algorithm.c   ****             an_dx[k] =  ( an_dx[k]+an_dx[k+1])/2 ;
 555              		.loc 1 130 0 discriminator 1
 556 00be B2F5F77F 		cmp	r2, #494
 557 00c2 ECDB     		blt	.L50
 558 00c4 0021     		movs	r1, #0
 559 00c6 1EE0     		b	.L51
 560              	.LVL66:
 561              	.L52:
 139:algorithm.c   ****                          }
 562              		.loc 1 139 0 discriminator 3
 563 00c8 A04A     		ldr	r2, .L103
 564 00ca 02EB8302 		add	r2, r2, r3, lsl #2
 565 00ce D2F8D077 		ldr	r7, [r2, #2000]
 566 00d2 C1EB030E 		rsb	lr, r1, r3
 567 00d6 9E4A     		ldr	r2, .L103+4
 568 00d8 32F81E20 		ldrh	r2, [r2, lr, lsl #1]
 569 00dc 07FB1200 		mls	r0, r7, r2, r0
 570              	.LVL67:
 138:algorithm.c   ****                 s -= an_dx[k] *auw_hamm[k-i] ; 
 571              		.loc 1 138 0 discriminator 3
 572 00e0 0133     		adds	r3, r3, #1
 573              	.LVL68:
 574 00e2 01E0     		b	.L53
 575              	.LVL69:
 576              	.L93:
 577 00e4 0B46     		mov	r3, r1
 578 00e6 0020     		movs	r0, #0
 579              	.L53:
 580              	.LVL70:
 138:algorithm.c   ****                 s -= an_dx[k] *auw_hamm[k-i] ; 
 581              		.loc 1 138 0 is_stmt 0 discriminator 1
 582 00e8 4A1D     		adds	r2, r1, #5
 583 00ea 9342     		cmp	r3, r2
 584 00ec ECDB     		blt	.L52
 141:algorithm.c   ****         }
 585              		.loc 1 141 0 is_stmt 1 discriminator 2
 586 00ee 994B     		ldr	r3, .L103+8
 587              	.LVL71:
 588 00f0 83FB0023 		smull	r2, r3, r3, r0
 589 00f4 C017     		asrs	r0, r0, #31
ARM GAS  C:\Users\furka\AppData\Local\Temp\cc6thHdA.s 			page 19


 590              	.LVL72:
 591 00f6 C0EB6320 		rsb	r0, r0, r3, asr #9
 592 00fa 944B     		ldr	r3, .L103
 593 00fc 03EB8103 		add	r3, r3, r1, lsl #2
 594 0100 C3F8D007 		str	r0, [r3, #2000]
 136:algorithm.c   ****             s= 0;
 595              		.loc 1 136 0 discriminator 2
 596 0104 0131     		adds	r1, r1, #1
 597              	.LVL73:
 598              	.L51:
 136:algorithm.c   ****             s= 0;
 599              		.loc 1 136 0 is_stmt 0 discriminator 1
 600 0106 B1F5F47F 		cmp	r1, #488
 601 010a EBDD     		ble	.L93
 602 010c 0021     		movs	r1, #0
 603              	.LVL74:
 604 010e 0B46     		mov	r3, r1
 605 0110 09E0     		b	.L54
 606              	.LVL75:
 607              	.L55:
 147:algorithm.c   ****         }
 608              		.loc 1 147 0 is_stmt 1 discriminator 3
 609 0112 8E4A     		ldr	r2, .L103
 610 0114 02EB8302 		add	r2, r2, r3, lsl #2
 611 0118 D2F8D027 		ldr	r2, [r2, #2000]
 612 011c 002A     		cmp	r2, #0
 613 011e B8BF     		it	lt
 614 0120 5242     		rsblt	r2, r2, #0
 615 0122 1144     		add	r1, r1, r2
 616              	.LVL76:
 146:algorithm.c   ****             n_th1 += ((an_dx[k]>0)? an_dx[k] : ((int32_t)0-an_dx[k])) ;
 617              		.loc 1 146 0 discriminator 3
 618 0124 0133     		adds	r3, r3, #1
 619              	.LVL77:
 620              	.L54:
 146:algorithm.c   ****             n_th1 += ((an_dx[k]>0)? an_dx[k] : ((int32_t)0-an_dx[k])) ;
 621              		.loc 1 146 0 is_stmt 0 discriminator 1
 622 0126 B3F5F77F 		cmp	r3, #494
 623 012a F2DD     		ble	.L55
 149:algorithm.c   ****         // peak location is acutally index for sharpest location of raw signal since we flipped the
 624              		.loc 1 149 0 is_stmt 1
 625 012c 8A4B     		ldr	r3, .L103+12
 626              	.LVL78:
 627 012e 83FB0123 		smull	r2, r3, r3, r1
 628 0132 C917     		asrs	r1, r1, #31
 629              	.LVL79:
 630 0134 C1EBA313 		rsb	r3, r1, r3, asr #6
 631              	.LVL80:
 151:algorithm.c   **** 
 632              		.loc 1 151 0
 633 0138 0522     		movs	r2, #5
 634 013a 0292     		str	r2, [sp, #8]
 635 013c 0822     		movs	r2, #8
 636 013e 0192     		str	r2, [sp, #4]
 637 0140 0093     		str	r3, [sp]
 638 0142 40F2EF13 		movw	r3, #495
 639              	.LVL81:
ARM GAS  C:\Users\furka\AppData\Local\Temp\cc6thHdA.s 			page 20


 640 0146 854A     		ldr	r2, .L103+16
 641 0148 39A9     		add	r1, sp, #228
 642 014a 0CA8     		add	r0, sp, #48
 643 014c FFF7FEFF 		bl	maxim_find_peaks
 644              	.LVL82:
 154:algorithm.c   ****             for (k=1; k<n_npks; k++)
 645              		.loc 1 154 0
 646 0150 DDF8E4E0 		ldr	lr, [sp, #228]
 647 0154 BEF1010F 		cmp	lr, #1
 648 0158 0FDC     		bgt	.L94
 649 015a 21E0     		b	.L101
 650              	.LVL83:
 651              	.L58:
 156:algorithm.c   ****             n_peak_interval_sum=n_peak_interval_sum/(n_npks-1);
 652              		.loc 1 156 0 discriminator 3
 653 015c 3AAB     		add	r3, sp, #232
 654 015e 03EB8103 		add	r3, r3, r1, lsl #2
 655 0162 53F8B83C 		ldr	r3, [r3, #-184]
 656 0166 4A1E     		subs	r2, r1, #1
 657 0168 3AAF     		add	r7, sp, #232
 658 016a 07EB8202 		add	r2, r7, r2, lsl #2
 659 016e 52F8B82C 		ldr	r2, [r2, #-184]
 660 0172 9B1A     		subs	r3, r3, r2
 661 0174 1844     		add	r0, r0, r3
 662              	.LVL84:
 155:algorithm.c   ****                 n_peak_interval_sum += (an_dx_peak_locs[k]-an_dx_peak_locs[k -1]);
 663              		.loc 1 155 0 discriminator 3
 664 0176 0131     		adds	r1, r1, #1
 665              	.LVL85:
 666 0178 01E0     		b	.L56
 667              	.LVL86:
 668              	.L94:
 669 017a 0020     		movs	r0, #0
 670 017c 0121     		movs	r1, #1
 671              	.LVL87:
 672              	.L56:
 155:algorithm.c   ****                 n_peak_interval_sum += (an_dx_peak_locs[k]-an_dx_peak_locs[k -1]);
 673              		.loc 1 155 0 is_stmt 0 discriminator 1
 674 017e 7145     		cmp	r1, lr
 675 0180 ECDB     		blt	.L58
 157:algorithm.c   ****             *pn_heart_rate=(int32_t)(6000/n_peak_interval_sum);// beats per minutes
 676              		.loc 1 157 0 is_stmt 1
 677 0182 0EF1FF3E 		add	lr, lr, #-1
 678 0186 90FBFEF0 		sdiv	r0, r0, lr
 679              	.LVL88:
 158:algorithm.c   ****             *pch_hr_valid  = 1;
 680              		.loc 1 158 0
 681 018a 41F27073 		movw	r3, #6000
 682 018e 93FBF0F0 		sdiv	r0, r3, r0
 683              	.LVL89:
 684 0192 C8F80000 		str	r0, [r8]
 159:algorithm.c   ****         }
 685              		.loc 1 159 0
 686 0196 0123     		movs	r3, #1
 687 0198 89F80030 		strb	r3, [r9]
 688              	.LVL90:
 689              	.L60:
ARM GAS  C:\Users\furka\AppData\Local\Temp\cc6thHdA.s 			page 21


 690 019c 0023     		movs	r3, #0
 691 019e 0FE0     		b	.L59
 692              	.LVL91:
 693              	.L101:
 162:algorithm.c   ****             *pch_hr_valid  = 0;
 694              		.loc 1 162 0
 695 01a0 6F4B     		ldr	r3, .L103+20
 696 01a2 C8F80030 		str	r3, [r8]
 163:algorithm.c   ****         }
 697              		.loc 1 163 0
 698 01a6 0023     		movs	r3, #0
 699 01a8 89F80030 		strb	r3, [r9]
 700 01ac F6E7     		b	.L60
 701              	.LVL92:
 702              	.L61:
 167:algorithm.c   **** 
 703              		.loc 1 167 0 discriminator 3
 704 01ae 3AAA     		add	r2, sp, #232
 705 01b0 02EB8301 		add	r1, r2, r3, lsl #2
 706 01b4 51F8B82C 		ldr	r2, [r1, #-184]
 707 01b8 0232     		adds	r2, r2, #2
 708 01ba 41F8402C 		str	r2, [r1, #-64]
 166:algorithm.c   ****             an_ir_valley_locs[k]=an_dx_peak_locs[k]+HAMMING_SIZE/2; 
 709              		.loc 1 166 0 discriminator 3
 710 01be 0133     		adds	r3, r3, #1
 711              	.LVL93:
 712              	.L59:
 166:algorithm.c   ****             an_ir_valley_locs[k]=an_dx_peak_locs[k]+HAMMING_SIZE/2; 
 713              		.loc 1 166 0 is_stmt 0 discriminator 1
 714 01c0 3998     		ldr	r0, [sp, #228]
 715 01c2 8342     		cmp	r3, r0
 716 01c4 F3DB     		blt	.L61
 717 01c6 0023     		movs	r3, #0
 718              	.LVL94:
 719 01c8 0BE0     		b	.L62
 720              	.LVL95:
 721              	.L63:
 173:algorithm.c   ****             an_y[k] =  pun_red_buffer[k] ; 
 722              		.loc 1 173 0 is_stmt 1 discriminator 3
 723 01ca 55F82310 		ldr	r1, [r5, r3, lsl #2]
 724 01ce 5F4A     		ldr	r2, .L103
 725 01d0 42F82310 		str	r1, [r2, r3, lsl #2]
 174:algorithm.c   ****         }
 726              		.loc 1 174 0 discriminator 3
 727 01d4 56F82310 		ldr	r1, [r6, r3, lsl #2]
 728 01d8 02EB8302 		add	r2, r2, r3, lsl #2
 729 01dc C2F8901F 		str	r1, [r2, #3984]
 172:algorithm.c   ****             an_x[k] =  pun_ir_buffer[k] ; 
 730              		.loc 1 172 0 discriminator 3
 731 01e0 0133     		adds	r3, r3, #1
 732              	.LVL96:
 733              	.L62:
 172:algorithm.c   ****             an_x[k] =  pun_ir_buffer[k] ; 
 734              		.loc 1 172 0 is_stmt 0 discriminator 1
 735 01e2 A342     		cmp	r3, r4
 736 01e4 F1DB     		blt	.L63
 737 01e6 4FF00009 		mov	r9, #0
ARM GAS  C:\Users\furka\AppData\Local\Temp\cc6thHdA.s 			page 22


 738 01ea 4C46     		mov	r4, r9
 739              	.LVL97:
 740 01ec 24E0     		b	.L64
 741              	.LVL98:
 742              	.L70:
 181:algorithm.c   ****             n_c_min= 16777216;//2^24;
 743              		.loc 1 181 0 is_stmt 1
 744 01ee 3AAB     		add	r3, sp, #232
 745 01f0 03EB8403 		add	r3, r3, r4, lsl #2
 746 01f4 53F8403C 		ldr	r3, [r3, #-64]
 747              	.LVL99:
 183:algorithm.c   ****                 for(i= m-5;i<m+5; i++)
 748              		.loc 1 183 0
 749 01f8 591D     		adds	r1, r3, #5
 750 01fa B1F5F77F 		cmp	r1, #494
 751 01fe 1ADC     		bgt	.L65
 183:algorithm.c   ****                 for(i= m-5;i<m+5; i++)
 752              		.loc 1 183 0 is_stmt 0 discriminator 1
 753 0200 053B     		subs	r3, r3, #5
 754              	.LVL100:
 755 0202 002B     		cmp	r3, #0
 756 0204 0FDC     		bgt	.L95
 757 0206 16E0     		b	.L65
 758              	.LVL101:
 759              	.L69:
 185:algorithm.c   ****                         if (un_only_once >0){
 760              		.loc 1 185 0 is_stmt 1
 761 0208 504A     		ldr	r2, .L103
 762 020a 52F82320 		ldr	r2, [r2, r3, lsl #2]
 763 020e 9542     		cmp	r5, r2
 764 0210 07DD     		ble	.L67
 186:algorithm.c   ****                            un_only_once =0;
 765              		.loc 1 186 0
 766 0212 06B1     		cbz	r6, .L68
 187:algorithm.c   ****                        } 
 767              		.loc 1 187 0
 768 0214 0026     		movs	r6, #0
 769              	.LVL102:
 770              	.L68:
 190:algorithm.c   ****                     }
 771              		.loc 1 190 0
 772 0216 3AAD     		add	r5, sp, #232
 773              	.LVL103:
 774 0218 05EB8405 		add	r5, r5, r4, lsl #2
 775              	.LVL104:
 776 021c 45F87C3C 		str	r3, [r5, #-124]
 189:algorithm.c   ****                        an_exact_ir_valley_locs[k]=i;
 777              		.loc 1 189 0
 778 0220 1546     		mov	r5, r2
 779              	.LVL105:
 780              	.L67:
 184:algorithm.c   ****                     if (an_x[i]<n_c_min){
 781              		.loc 1 184 0 discriminator 2
 782 0222 0133     		adds	r3, r3, #1
 783              	.LVL106:
 784 0224 02E0     		b	.L66
 785              	.LVL107:
ARM GAS  C:\Users\furka\AppData\Local\Temp\cc6thHdA.s 			page 23


 786              	.L95:
 787 0226 4FF08075 		mov	r5, #16777216
 788 022a 0126     		movs	r6, #1
 789              	.LVL108:
 790              	.L66:
 184:algorithm.c   ****                     if (an_x[i]<n_c_min){
 791              		.loc 1 184 0 is_stmt 0 discriminator 1
 792 022c 8B42     		cmp	r3, r1
 793 022e EBDB     		blt	.L69
 192:algorithm.c   ****                     n_exact_ir_valley_locs_count ++ ;
 794              		.loc 1 192 0 is_stmt 1
 795 0230 0EB9     		cbnz	r6, .L65
 193:algorithm.c   ****             }
 796              		.loc 1 193 0
 797 0232 09F10109 		add	r9, r9, #1
 798              	.LVL109:
 799              	.L65:
 179:algorithm.c   ****             un_only_once =1;
 800              		.loc 1 179 0 discriminator 2
 801 0236 0134     		adds	r4, r4, #1
 802              	.LVL110:
 803              	.L64:
 179:algorithm.c   ****             un_only_once =1;
 804              		.loc 1 179 0 is_stmt 0 discriminator 1
 805 0238 8442     		cmp	r4, r0
 806 023a D8DB     		blt	.L70
 196:algorithm.c   ****            *pn_spo2 =  -999 ; // do not use SPO2 since signal ratio is out of range
 807              		.loc 1 196 0 is_stmt 1
 808 023c B9F1010F 		cmp	r9, #1
 809 0240 38DC     		bgt	.L97
 197:algorithm.c   ****            *pch_spo2_valid  = 0; 
 810              		.loc 1 197 0
 811 0242 474B     		ldr	r3, .L103+20
 812 0244 059A     		ldr	r2, [sp, #20]
 813 0246 1360     		str	r3, [r2]
 198:algorithm.c   ****            return;
 814              		.loc 1 198 0
 815 0248 0023     		movs	r3, #0
 816 024a 449A     		ldr	r2, [sp, #272]
 817 024c 1370     		strb	r3, [r2]
 199:algorithm.c   ****         }
 818              		.loc 1 199 0
 819 024e 02E1     		b	.L39
 820              	.LVL111:
 821              	.L75:
 203:algorithm.c   ****             an_y[k]=( an_y[k]+an_y[k+1]+ an_y[k+2]+ an_y[k+3])/(int32_t)4;
 822              		.loc 1 203 0 discriminator 3
 823 0250 3E4D     		ldr	r5, .L103
 824 0252 55F82120 		ldr	r2, [r5, r1, lsl #2]
 825 0256 4C1C     		adds	r4, r1, #1
 826 0258 55F82430 		ldr	r3, [r5, r4, lsl #2]
 827 025c 1A44     		add	r2, r2, r3
 828 025e 881C     		adds	r0, r1, #2
 829 0260 55F82030 		ldr	r3, [r5, r0, lsl #2]
 830 0264 1344     		add	r3, r3, r2
 831 0266 CE1C     		adds	r6, r1, #3
 832 0268 55F82620 		ldr	r2, [r5, r6, lsl #2]
ARM GAS  C:\Users\furka\AppData\Local\Temp\cc6thHdA.s 			page 24


 833 026c 9B18     		adds	r3, r3, r2
 834 026e 00D5     		bpl	.L73
 835 0270 0333     		adds	r3, r3, #3
 836              	.L73:
 837 0272 9B10     		asrs	r3, r3, #2
 838 0274 354A     		ldr	r2, .L103
 839 0276 42F82130 		str	r3, [r2, r1, lsl #2]
 204:algorithm.c   ****         }
 840              		.loc 1 204 0 discriminator 3
 841 027a 02EB8103 		add	r3, r2, r1, lsl #2
 842 027e D3F8905F 		ldr	r5, [r3, #3984]
 843 0282 02EB8403 		add	r3, r2, r4, lsl #2
 844 0286 D3F8903F 		ldr	r3, [r3, #3984]
 845 028a 1D44     		add	r5, r5, r3
 846 028c 02EB8000 		add	r0, r2, r0, lsl #2
 847 0290 D0F8903F 		ldr	r3, [r0, #3984]
 848 0294 2B44     		add	r3, r3, r5
 849 0296 02EB8602 		add	r2, r2, r6, lsl #2
 850 029a D2F8902F 		ldr	r2, [r2, #3984]
 851 029e 9B18     		adds	r3, r3, r2
 852 02a0 00D5     		bpl	.L74
 853 02a2 0333     		adds	r3, r3, #3
 854              	.L74:
 855 02a4 9B10     		asrs	r3, r3, #2
 856 02a6 294A     		ldr	r2, .L103
 857 02a8 02EB8101 		add	r1, r2, r1, lsl #2
 858              	.LVL112:
 859 02ac C1F8903F 		str	r3, [r1, #3984]
 860              	.LVL113:
 202:algorithm.c   ****             an_x[k]=( an_x[k]+an_x[k+1]+ an_x[k+2]+ an_x[k+3])/(int32_t)4;
 861              		.loc 1 202 0 discriminator 3
 862 02b0 2146     		mov	r1, r4
 863 02b2 00E0     		b	.L71
 864              	.L97:
 865 02b4 0021     		movs	r1, #0
 866              	.L71:
 867              	.LVL114:
 202:algorithm.c   ****             an_x[k]=( an_x[k]+an_x[k+1]+ an_x[k+2]+ an_x[k+3])/(int32_t)4;
 868              		.loc 1 202 0 is_stmt 0 discriminator 1
 869 02b6 B1F5F87F 		cmp	r1, #496
 870 02ba C9DB     		blt	.L75
 871 02bc 0023     		movs	r3, #0
 872 02be 06E0     		b	.L76
 873              	.LVL115:
 874              	.L77:
 212:algorithm.c   ****         for (k=0; k< n_exact_ir_valley_locs_count; k++){
 875              		.loc 1 212 0 is_stmt 1 discriminator 3
 876 02c0 3AAA     		add	r2, sp, #232
 877 02c2 02EB8302 		add	r2, r2, r3, lsl #2
 878 02c6 0021     		movs	r1, #0
 879 02c8 42F8CC1C 		str	r1, [r2, #-204]
 880 02cc 0133     		adds	r3, r3, #1
 881              	.LVL116:
 882              	.L76:
 212:algorithm.c   ****         for (k=0; k< n_exact_ir_valley_locs_count; k++){
 883              		.loc 1 212 0 is_stmt 0 discriminator 1
 884 02ce 042B     		cmp	r3, #4
ARM GAS  C:\Users\furka\AppData\Local\Temp\cc6thHdA.s 			page 25


 885 02d0 F6DD     		ble	.L77
 886 02d2 0023     		movs	r3, #0
 887              	.LVL117:
 888 02d4 0FE0     		b	.L78
 889              	.LVL118:
 890              	.L80:
 214:algorithm.c   ****                 *pn_spo2 =  -999 ; // do not use SPO2 since valley loc is out of range
 891              		.loc 1 214 0 is_stmt 1
 892 02d6 3AAA     		add	r2, sp, #232
 893 02d8 02EB8302 		add	r2, r2, r3, lsl #2
 894 02dc 52F87C2C 		ldr	r2, [r2, #-124]
 895 02e0 B2F5FA7F 		cmp	r2, #500
 896 02e4 06DD     		ble	.L79
 215:algorithm.c   ****                 *pch_spo2_valid  = 0; 
 897              		.loc 1 215 0
 898 02e6 1E4B     		ldr	r3, .L103+20
 899              	.LVL119:
 900 02e8 059A     		ldr	r2, [sp, #20]
 901 02ea 1360     		str	r3, [r2]
 216:algorithm.c   ****                 return;
 902              		.loc 1 216 0
 903 02ec 0023     		movs	r3, #0
 904 02ee 449A     		ldr	r2, [sp, #272]
 905 02f0 1370     		strb	r3, [r2]
 217:algorithm.c   ****             }
 906              		.loc 1 217 0
 907 02f2 B0E0     		b	.L39
 908              	.LVL120:
 909              	.L79:
 213:algorithm.c   ****             if (an_exact_ir_valley_locs[k] > BUFFER_SIZE ){             
 910              		.loc 1 213 0 discriminator 2
 911 02f4 0133     		adds	r3, r3, #1
 912              	.LVL121:
 913              	.L78:
 213:algorithm.c   ****             if (an_exact_ir_valley_locs[k] > BUFFER_SIZE ){             
 914              		.loc 1 213 0 is_stmt 0 discriminator 1
 915 02f6 4B45     		cmp	r3, r9
 916 02f8 EDDB     		blt	.L80
 917 02fa 4FF00008 		mov	r8, #0
 918 02fe C446     		mov	ip, r8
 919 0300 4746     		mov	r7, r8
 920 0302 4346     		mov	r3, r8
 921              	.LVL122:
 922 0304 73E0     		b	.L81
 923              	.LVL123:
 924              	.L87:
 226:algorithm.c   ****                 for (i=an_exact_ir_valley_locs[k]; i< an_exact_ir_valley_locs[k+1]; i++){
 925              		.loc 1 226 0 is_stmt 1
 926 0306 5E1C     		adds	r6, r3, #1
 927 0308 3AAA     		add	r2, sp, #232
 928 030a 02EB8602 		add	r2, r2, r6, lsl #2
 929 030e 52F87C4C 		ldr	r4, [r2, #-124]
 930 0312 3AAA     		add	r2, sp, #232
 931 0314 02EB8303 		add	r3, r2, r3, lsl #2
 932              	.LVL124:
 933 0318 53F87C5C 		ldr	r5, [r3, #-124]
 934 031c C5EB040E 		rsb	lr, r5, r4
ARM GAS  C:\Users\furka\AppData\Local\Temp\cc6thHdA.s 			page 26


 935 0320 BEF10A0F 		cmp	lr, #10
 936 0324 1EDC     		bgt	.L98
 937 0326 61E0     		b	.L83
 938              	.LVL125:
 939              	.L86:
 228:algorithm.c   ****                     if (an_y[i]> n_y_dc_max) {n_y_dc_max =an_y[i];n_y_dc_max_idx=i;}
 940              		.loc 1 228 0
 941 0328 084A     		ldr	r2, .L103
 942 032a 52F82320 		ldr	r2, [r2, r3, lsl #2]
 943 032e 9142     		cmp	r1, r2
 944 0330 01DA     		bge	.L84
 945 0332 9846     		mov	r8, r3
 946              	.LVL126:
 947 0334 1146     		mov	r1, r2
 948              	.LVL127:
 949              	.L84:
 229:algorithm.c   ****                 }
 950              		.loc 1 229 0
 951 0336 054A     		ldr	r2, .L103
 952 0338 02EB8302 		add	r2, r2, r3, lsl #2
 953 033c D2F8902F 		ldr	r2, [r2, #3984]
 954 0340 9042     		cmp	r0, r2
 955 0342 01DA     		bge	.L85
 956 0344 9C46     		mov	ip, r3
 957              	.LVL128:
 958 0346 1046     		mov	r0, r2
 959              	.LVL129:
 960              	.L85:
 227:algorithm.c   ****                     if (an_x[i]> n_x_dc_max) {n_x_dc_max =an_x[i];n_x_dc_max_idx =i; }
 961              		.loc 1 227 0 discriminator 2
 962 0348 0133     		adds	r3, r3, #1
 963              	.LVL130:
 964 034a 0FE0     		b	.L82
 965              	.L104:
 966              		.align	2
 967              	.L103:
 968 034c 00000000 		.word	.LANCHOR0
 969 0350 00000000 		.word	.LANCHOR1
 970 0354 ED9B5F72 		.word	1918868461
 971 0358 67571921 		.word	555308903
 972 035c D0070000 		.word	.LANCHOR0+2000
 973 0360 19FCFFFF 		.word	-999
 974              	.LVL131:
 975              	.L98:
 976 0364 2B46     		mov	r3, r5
 977 0366 4FF07F41 		mov	r1, #-16777216
 978 036a 0846     		mov	r0, r1
 979              	.LVL132:
 980              	.L82:
 227:algorithm.c   ****                     if (an_x[i]> n_x_dc_max) {n_x_dc_max =an_x[i];n_x_dc_max_idx =i; }
 981              		.loc 1 227 0 is_stmt 0 discriminator 1
 982 036c A342     		cmp	r3, r4
 983 036e DBDB     		blt	.L86
 231:algorithm.c   ****                 n_y_ac=  an_y[an_exact_ir_valley_locs[k]] + n_y_ac/ (an_exact_ir_valley_locs[k+1] -
 984              		.loc 1 231 0 is_stmt 1
 985 0370 DFF8F0A0 		ldr	r10, .L105+8
 986 0374 0AEB8403 		add	r3, r10, r4, lsl #2
ARM GAS  C:\Users\furka\AppData\Local\Temp\cc6thHdA.s 			page 27


 987              	.LVL133:
 988 0378 D3F8903F 		ldr	r3, [r3, #3984]
 989 037c 0AEB8502 		add	r2, r10, r5, lsl #2
 990 0380 D2F8902F 		ldr	r2, [r2, #3984]
 991 0384 C2EB030B 		rsb	fp, r2, r3
 992 0388 C5EB0C03 		rsb	r3, r5, ip
 993 038c 03FB0BF3 		mul	r3, r3, fp
 994              	.LVL134:
 232:algorithm.c   ****             
 995              		.loc 1 232 0
 996 0390 93FBFEF3 		sdiv	r3, r3, lr
 997              	.LVL135:
 998 0394 1344     		add	r3, r3, r2
 999              	.LVL136:
 235:algorithm.c   ****                 n_x_ac= (an_x[an_exact_ir_valley_locs[k+1]] - an_x[an_exact_ir_valley_locs[k] ] )*(
 1000              		.loc 1 235 0
 1001 0396 0AEB8C02 		add	r2, r10, ip, lsl #2
 1002 039a D2F8902F 		ldr	r2, [r2, #3984]
 1003 039e D21A     		subs	r2, r2, r3
 1004              	.LVL137:
 236:algorithm.c   ****                 n_x_ac=  an_x[an_exact_ir_valley_locs[k]] + n_x_ac/ (an_exact_ir_valley_locs[k+1] -
 1005              		.loc 1 236 0
 1006 03a0 5AF82430 		ldr	r3, [r10, r4, lsl #2]
 1007 03a4 5AF82540 		ldr	r4, [r10, r5, lsl #2]
 1008 03a8 1B1B     		subs	r3, r3, r4
 1009 03aa C5EB0805 		rsb	r5, r5, r8
 1010 03ae 05FB03F3 		mul	r3, r5, r3
 1011              	.LVL138:
 237:algorithm.c   ****                 n_x_ac=  an_x[n_y_dc_max_idx] - n_x_ac;      // subracting linear DC compoenents fr
 1012              		.loc 1 237 0
 1013 03b2 93FBFEFE 		sdiv	lr, r3, lr
 1014 03b6 04EB0E03 		add	r3, r4, lr
 1015              	.LVL139:
 238:algorithm.c   ****                 n_nume=( n_y_ac *n_x_dc_max)>>7 ; //prepare X100 to preserve floating value
 1016              		.loc 1 238 0
 1017 03ba 5AF82C40 		ldr	r4, [r10, ip, lsl #2]
 1018 03be E31A     		subs	r3, r4, r3
 1019              	.LVL140:
 239:algorithm.c   ****                 n_denom= ( n_x_ac *n_y_dc_max)>>7;
 1020              		.loc 1 239 0
 1021 03c0 02FB01F2 		mul	r2, r2, r1
 1022              	.LVL141:
 1023 03c4 D211     		asrs	r2, r2, #7
 1024              	.LVL142:
 240:algorithm.c   ****                 if (n_denom>0  && n_i_ratio_count <5 &&  n_nume != 0)
 1025              		.loc 1 240 0
 1026 03c6 03FB00F3 		mul	r3, r3, r0
 1027              	.LVL143:
 1028 03ca DB11     		asrs	r3, r3, #7
 1029              	.LVL144:
 241:algorithm.c   ****                 {   
 1030              		.loc 1 241 0
 1031 03cc 002B     		cmp	r3, #0
 1032 03ce 0DDD     		ble	.L83
 241:algorithm.c   ****                 {   
 1033              		.loc 1 241 0 is_stmt 0 discriminator 1
 1034 03d0 042F     		cmp	r7, #4
ARM GAS  C:\Users\furka\AppData\Local\Temp\cc6thHdA.s 			page 28


 1035 03d2 0BDC     		bgt	.L83
 241:algorithm.c   ****                 {   
 1036              		.loc 1 241 0 discriminator 2
 1037 03d4 52B1     		cbz	r2, .L83
 243:algorithm.c   ****                     n_i_ratio_count++;
 1038              		.loc 1 243 0 is_stmt 1
 1039 03d6 6421     		movs	r1, #100
 1040              	.LVL145:
 1041 03d8 01FB02F2 		mul	r2, r1, r2
 1042              	.LVL146:
 1043 03dc 92FBF3F3 		sdiv	r3, r2, r3
 1044              	.LVL147:
 1045 03e0 3AAA     		add	r2, sp, #232
 1046              	.LVL148:
 1047 03e2 02EB8702 		add	r2, r2, r7, lsl #2
 1048              	.LVL149:
 1049 03e6 42F8CC3C 		str	r3, [r2, #-204]
 244:algorithm.c   ****                 }
 1050              		.loc 1 244 0
 1051 03ea 0137     		adds	r7, r7, #1
 1052              	.LVL150:
 1053              	.L83:
 1054 03ec 3346     		mov	r3, r6
 1055              	.LVL151:
 1056              	.L81:
 223:algorithm.c   ****             n_y_dc_max= -16777216 ; 
 1057              		.loc 1 223 0 discriminator 1
 1058 03ee 09F1FF32 		add	r2, r9, #-1
 1059 03f2 9342     		cmp	r3, r2
 1060 03f4 87DB     		blt	.L87
 249:algorithm.c   ****         n_middle_idx= n_i_ratio_count/2;
 1061              		.loc 1 249 0
 1062 03f6 3946     		mov	r1, r7
 1063 03f8 07A8     		add	r0, sp, #28
 1064 03fa FFF7FEFF 		bl	maxim_sort_ascend
 1065              	.LVL152:
 250:algorithm.c   **** 
 1066              		.loc 1 250 0
 1067 03fe 07EBD777 		add	r7, r7, r7, lsr #31
 1068              	.LVL153:
 1069 0402 7B10     		asrs	r3, r7, #1
 1070              	.LVL154:
 252:algorithm.c   ****             n_ratio_average =( an_ratio[n_middle_idx-1] +an_ratio[n_middle_idx])/2; // use median
 1071              		.loc 1 252 0
 1072 0404 012B     		cmp	r3, #1
 1073 0406 0EDD     		ble	.L88
 253:algorithm.c   ****         else
 1074              		.loc 1 253 0
 1075 0408 5A1E     		subs	r2, r3, #1
 1076 040a 3AA9     		add	r1, sp, #232
 1077 040c 01EB8202 		add	r2, r1, r2, lsl #2
 1078 0410 52F8CC2C 		ldr	r2, [r2, #-204]
 1079 0414 01EB8303 		add	r3, r1, r3, lsl #2
 1080              	.LVL155:
 1081 0418 53F8CC3C 		ldr	r3, [r3, #-204]
 1082 041c 1344     		add	r3, r3, r2
 1083 041e 03EBD373 		add	r3, r3, r3, lsr #31
ARM GAS  C:\Users\furka\AppData\Local\Temp\cc6thHdA.s 			page 29


 1084 0422 5B10     		asrs	r3, r3, #1
 1085              	.LVL156:
 1086 0424 04E0     		b	.L89
 1087              	.LVL157:
 1088              	.L88:
 255:algorithm.c   **** 
 1089              		.loc 1 255 0
 1090 0426 3AAA     		add	r2, sp, #232
 1091 0428 02EB8303 		add	r3, r2, r3, lsl #2
 1092              	.LVL158:
 1093 042c 53F8CC3C 		ldr	r3, [r3, #-204]
 1094              	.LVL159:
 1095              	.L89:
 257:algorithm.c   ****             n_spo2_calc= uch_spo2_table[n_ratio_average] ;
 1096              		.loc 1 257 0
 1097 0430 DA1E     		subs	r2, r3, #3
 1098 0432 B42A     		cmp	r2, #180
 1099 0434 09D8     		bhi	.L90
 258:algorithm.c   ****             *pn_spo2 = n_spo2_calc ;
 1100              		.loc 1 258 0
 1101 0436 094A     		ldr	r2, .L105
 1102 0438 1344     		add	r3, r3, r2
 1103              	.LVL160:
 1104 043a 93F84030 		ldrb	r3, [r3, #64]	@ zero_extendqisi2
 1105              	.LVL161:
 259:algorithm.c   ****             *pch_spo2_valid  = 1;//  float_SPO2 =  -45.060*n_ratio_average* n_ratio_average/10000 +
 1106              		.loc 1 259 0
 1107 043e 059A     		ldr	r2, [sp, #20]
 1108 0440 1360     		str	r3, [r2]
 260:algorithm.c   ****         }
 1109              		.loc 1 260 0
 1110 0442 0123     		movs	r3, #1
 1111              	.LVL162:
 1112 0444 449A     		ldr	r2, [sp, #272]
 1113              	.LVL163:
 1114 0446 1370     		strb	r3, [r2]
 1115              	.LVL164:
 1116 0448 05E0     		b	.L39
 1117              	.LVL165:
 1118              	.L90:
 263:algorithm.c   ****             *pch_spo2_valid  = 0; 
 1119              		.loc 1 263 0
 1120 044a 054B     		ldr	r3, .L105+4
 1121              	.LVL166:
 1122 044c 059A     		ldr	r2, [sp, #20]
 1123              	.LVL167:
 1124 044e 1360     		str	r3, [r2]
 264:algorithm.c   ****         }
 1125              		.loc 1 264 0
 1126 0450 0023     		movs	r3, #0
 1127 0452 449A     		ldr	r2, [sp, #272]
 1128 0454 1370     		strb	r3, [r2]
 1129              	.LVL168:
 1130              	.L39:
 266:algorithm.c   **** 
 1131              		.loc 1 266 0
 1132 0456 3BB0     		add	sp, sp, #236
ARM GAS  C:\Users\furka\AppData\Local\Temp\cc6thHdA.s 			page 30


 1133              		.cfi_def_cfa_offset 36
 1134              		@ sp needed
 1135 0458 BDE8F08F 		pop	{r4, r5, r6, r7, r8, r9, r10, fp, pc}
 1136              	.LVL169:
 1137              	.L106:
 1138              		.align	2
 1139              	.L105:
 1140 045c 00000000 		.word	.LANCHOR1
 1141 0460 19FCFFFF 		.word	-999
 1142 0464 00000000 		.word	.LANCHOR0
 1143              		.cfi_endproc
 1144              	.LFE63:
 1145              		.size	maxim_heart_rate_and_oxygen_saturation, .-maxim_heart_rate_and_oxygen_saturation
 1146              		.global	uch_spo2_table
 1147              		.global	auw_hamm
 1148              		.section	.rodata
 1149              		.align	2
 1150              		.set	.LANCHOR1,. + 0
 1151              		.type	auw_hamm, %object
 1152              		.size	auw_hamm, 62
 1153              	auw_hamm:
 1154 0000 2900     		.short	41
 1155 0002 1401     		.short	276
 1156 0004 0002     		.short	512
 1157 0006 1401     		.short	276
 1158 0008 2900     		.short	41
 1159 000a 00000000 		.space	52
 1159      00000000 
 1159      00000000 
 1159      00000000 
 1159      00000000 
 1160 003e 0000     		.space	2
 1161              		.type	uch_spo2_table, %object
 1162              		.size	uch_spo2_table, 184
 1163              	uch_spo2_table:
 1164 0040 5F       		.byte	95
 1165 0041 5F       		.byte	95
 1166 0042 5F       		.byte	95
 1167 0043 60       		.byte	96
 1168 0044 60       		.byte	96
 1169 0045 60       		.byte	96
 1170 0046 61       		.byte	97
 1171 0047 61       		.byte	97
 1172 0048 61       		.byte	97
 1173 0049 61       		.byte	97
 1174 004a 61       		.byte	97
 1175 004b 62       		.byte	98
 1176 004c 62       		.byte	98
 1177 004d 62       		.byte	98
 1178 004e 62       		.byte	98
 1179 004f 62       		.byte	98
 1180 0050 63       		.byte	99
 1181 0051 63       		.byte	99
 1182 0052 63       		.byte	99
 1183 0053 63       		.byte	99
 1184 0054 63       		.byte	99
 1185 0055 63       		.byte	99
ARM GAS  C:\Users\furka\AppData\Local\Temp\cc6thHdA.s 			page 31


 1186 0056 63       		.byte	99
 1187 0057 63       		.byte	99
 1188 0058 64       		.byte	100
 1189 0059 64       		.byte	100
 1190 005a 64       		.byte	100
 1191 005b 64       		.byte	100
 1192 005c 64       		.byte	100
 1193 005d 64       		.byte	100
 1194 005e 64       		.byte	100
 1195 005f 64       		.byte	100
 1196 0060 64       		.byte	100
 1197 0061 64       		.byte	100
 1198 0062 64       		.byte	100
 1199 0063 64       		.byte	100
 1200 0064 64       		.byte	100
 1201 0065 64       		.byte	100
 1202 0066 64       		.byte	100
 1203 0067 64       		.byte	100
 1204 0068 64       		.byte	100
 1205 0069 64       		.byte	100
 1206 006a 64       		.byte	100
 1207 006b 64       		.byte	100
 1208 006c 63       		.byte	99
 1209 006d 63       		.byte	99
 1210 006e 63       		.byte	99
 1211 006f 63       		.byte	99
 1212 0070 63       		.byte	99
 1213 0071 63       		.byte	99
 1214 0072 63       		.byte	99
 1215 0073 63       		.byte	99
 1216 0074 62       		.byte	98
 1217 0075 62       		.byte	98
 1218 0076 62       		.byte	98
 1219 0077 62       		.byte	98
 1220 0078 62       		.byte	98
 1221 0079 62       		.byte	98
 1222 007a 61       		.byte	97
 1223 007b 61       		.byte	97
 1224 007c 61       		.byte	97
 1225 007d 61       		.byte	97
 1226 007e 60       		.byte	96
 1227 007f 60       		.byte	96
 1228 0080 60       		.byte	96
 1229 0081 60       		.byte	96
 1230 0082 5F       		.byte	95
 1231 0083 5F       		.byte	95
 1232 0084 5F       		.byte	95
 1233 0085 5E       		.byte	94
 1234 0086 5E       		.byte	94
 1235 0087 5E       		.byte	94
 1236 0088 5D       		.byte	93
 1237 0089 5D       		.byte	93
 1238 008a 5D       		.byte	93
 1239 008b 5C       		.byte	92
 1240 008c 5C       		.byte	92
 1241 008d 5C       		.byte	92
 1242 008e 5B       		.byte	91
ARM GAS  C:\Users\furka\AppData\Local\Temp\cc6thHdA.s 			page 32


 1243 008f 5B       		.byte	91
 1244 0090 5A       		.byte	90
 1245 0091 5A       		.byte	90
 1246 0092 59       		.byte	89
 1247 0093 59       		.byte	89
 1248 0094 59       		.byte	89
 1249 0095 58       		.byte	88
 1250 0096 58       		.byte	88
 1251 0097 57       		.byte	87
 1252 0098 57       		.byte	87
 1253 0099 56       		.byte	86
 1254 009a 56       		.byte	86
 1255 009b 55       		.byte	85
 1256 009c 55       		.byte	85
 1257 009d 54       		.byte	84
 1258 009e 54       		.byte	84
 1259 009f 53       		.byte	83
 1260 00a0 52       		.byte	82
 1261 00a1 52       		.byte	82
 1262 00a2 51       		.byte	81
 1263 00a3 51       		.byte	81
 1264 00a4 50       		.byte	80
 1265 00a5 50       		.byte	80
 1266 00a6 4F       		.byte	79
 1267 00a7 4E       		.byte	78
 1268 00a8 4E       		.byte	78
 1269 00a9 4D       		.byte	77
 1270 00aa 4C       		.byte	76
 1271 00ab 4C       		.byte	76
 1272 00ac 4B       		.byte	75
 1273 00ad 4A       		.byte	74
 1274 00ae 4A       		.byte	74
 1275 00af 49       		.byte	73
 1276 00b0 48       		.byte	72
 1277 00b1 48       		.byte	72
 1278 00b2 47       		.byte	71
 1279 00b3 46       		.byte	70
 1280 00b4 45       		.byte	69
 1281 00b5 45       		.byte	69
 1282 00b6 44       		.byte	68
 1283 00b7 43       		.byte	67
 1284 00b8 42       		.byte	66
 1285 00b9 42       		.byte	66
 1286 00ba 41       		.byte	65
 1287 00bb 40       		.byte	64
 1288 00bc 3F       		.byte	63
 1289 00bd 3E       		.byte	62
 1290 00be 3E       		.byte	62
 1291 00bf 3D       		.byte	61
 1292 00c0 3C       		.byte	60
 1293 00c1 3B       		.byte	59
 1294 00c2 3A       		.byte	58
 1295 00c3 39       		.byte	57
 1296 00c4 38       		.byte	56
 1297 00c5 38       		.byte	56
 1298 00c6 37       		.byte	55
 1299 00c7 36       		.byte	54
ARM GAS  C:\Users\furka\AppData\Local\Temp\cc6thHdA.s 			page 33


 1300 00c8 35       		.byte	53
 1301 00c9 34       		.byte	52
 1302 00ca 33       		.byte	51
 1303 00cb 32       		.byte	50
 1304 00cc 31       		.byte	49
 1305 00cd 30       		.byte	48
 1306 00ce 2F       		.byte	47
 1307 00cf 2E       		.byte	46
 1308 00d0 2D       		.byte	45
 1309 00d1 2C       		.byte	44
 1310 00d2 2B       		.byte	43
 1311 00d3 2A       		.byte	42
 1312 00d4 29       		.byte	41
 1313 00d5 28       		.byte	40
 1314 00d6 27       		.byte	39
 1315 00d7 26       		.byte	38
 1316 00d8 25       		.byte	37
 1317 00d9 24       		.byte	36
 1318 00da 23       		.byte	35
 1319 00db 22       		.byte	34
 1320 00dc 21       		.byte	33
 1321 00dd 1F       		.byte	31
 1322 00de 1E       		.byte	30
 1323 00df 1D       		.byte	29
 1324 00e0 1C       		.byte	28
 1325 00e1 1B       		.byte	27
 1326 00e2 1A       		.byte	26
 1327 00e3 19       		.byte	25
 1328 00e4 17       		.byte	23
 1329 00e5 16       		.byte	22
 1330 00e6 15       		.byte	21
 1331 00e7 14       		.byte	20
 1332 00e8 13       		.byte	19
 1333 00e9 11       		.byte	17
 1334 00ea 10       		.byte	16
 1335 00eb 0F       		.byte	15
 1336 00ec 0E       		.byte	14
 1337 00ed 0C       		.byte	12
 1338 00ee 0B       		.byte	11
 1339 00ef 0A       		.byte	10
 1340 00f0 09       		.byte	9
 1341 00f1 07       		.byte	7
 1342 00f2 06       		.byte	6
 1343 00f3 05       		.byte	5
 1344 00f4 03       		.byte	3
 1345 00f5 02       		.byte	2
 1346 00f6 01       		.byte	1
 1347 00f7 00       		.space	1
 1348              		.bss
 1349              		.align	2
 1350              		.set	.LANCHOR0,. + 0
 1351              		.type	an_x.5754, %object
 1352              		.size	an_x.5754, 2000
 1353              	an_x.5754:
 1354 0000 00000000 		.space	2000
 1354      00000000 
 1354      00000000 
ARM GAS  C:\Users\furka\AppData\Local\Temp\cc6thHdA.s 			page 34


 1354      00000000 
 1354      00000000 
 1355              		.type	an_dx.5753, %object
 1356              		.size	an_dx.5753, 1984
 1357              	an_dx.5753:
 1358 07d0 00000000 		.space	1984
 1358      00000000 
 1358      00000000 
 1358      00000000 
 1358      00000000 
 1359              		.type	an_y.5755, %object
 1360              		.size	an_y.5755, 2000
 1361              	an_y.5755:
 1362 0f90 00000000 		.space	2000
 1362      00000000 
 1362      00000000 
 1362      00000000 
 1362      00000000 
 1363              		.text
 1364              	.Letext0:
 1365              		.file 2 "c:\\program files (x86)\\cypress\\psoc creator\\4.2\\psoc creator\\import\\gnu\\arm\\5.4.
 1366              		.file 3 "c:\\program files (x86)\\cypress\\psoc creator\\4.2\\psoc creator\\import\\gnu\\arm\\5.4.
 1367              		.file 4 "Generated_Source\\PSoC5/core_cm3.h"