ARM GAS  C:\Users\furka\AppData\Local\Temp\ccNNSXMf.s 			page 1


   1              		.syntax unified
   2              		.cpu cortex-m3
   3              		.fpu softvfp
   4              		.eabi_attribute 20, 1
   5              		.eabi_attribute 21, 1
   6              		.eabi_attribute 23, 3
   7              		.eabi_attribute 24, 1
   8              		.eabi_attribute 25, 1
   9              		.eabi_attribute 26, 1
  10              		.eabi_attribute 30, 1
  11              		.eabi_attribute 34, 1
  12              		.eabi_attribute 18, 4
  13              		.thumb
  14              		.syntax unified
  15              		.file	"main.c"
  16              		.text
  17              	.Ltext0:
  18              		.cfi_sections	.debug_frame
  19              		.global	__aeabi_ui2f
  20              		.global	__aeabi_fdiv
  21              		.global	__aeabi_fmul
  22              		.global	__aeabi_f2iz
  23              		.section	.text.main,"ax",%progbits
  24              		.align	2
  25              		.global	main
  26              		.thumb
  27              		.thumb_func
  28              		.type	main, %function
  29              	main:
  30              	.LFB64:
  31              		.file 1 "main.c"
   1:main.c        **** /* ========================================
   2:main.c        **** *
   3:main.c        **** * Copyright YOUR COMPANY, THE YEAR
   4:main.c        **** * All Rights Reserved
   5:main.c        **** * UNPUBLISHED, LICENSED SOFTWARE.
   6:main.c        **** *
   7:main.c        **** * CONFIDENTIAL AND PROPRIETARY INFORMATION
   8:main.c        **** * WHICH IS THE PROPERTY OF your company.
   9:main.c        **** *
  10:main.c        **** * ========================================
  11:main.c        **** */
  12:main.c        **** #include "project.h"
  13:main.c        **** #include <stdlib.h>
  14:main.c        **** #include <stdio.h>
  15:main.c        **** #include <max30102.h>
  16:main.c        **** #include <algorithm.h>
  17:main.c        **** double temp,temp1,temp_frac;
  18:main.c        **** #define MAX_BRIGHTNESS 255
  19:main.c        **** 
  20:main.c        **** int main(void)
  21:main.c        **** {
  32              		.loc 1 21 0
  33              		.cfi_startproc
  34              		@ args = 0, pretend = 0, frame = 4032
  35              		@ frame_needed = 0, uses_anonymous_args = 0
  36 0000 2DE9F043 		push	{r4, r5, r6, r7, r8, r9, lr}
ARM GAS  C:\Users\furka\AppData\Local\Temp\ccNNSXMf.s 			page 2


  37              		.cfi_def_cfa_offset 28
  38              		.cfi_offset 4, -28
  39              		.cfi_offset 5, -24
  40              		.cfi_offset 6, -20
  41              		.cfi_offset 7, -16
  42              		.cfi_offset 8, -12
  43              		.cfi_offset 9, -8
  44              		.cfi_offset 14, -4
  45 0004 ADF6D47D 		subw	sp, sp, #4052
  46              		.cfi_def_cfa_offset 4080
  22:main.c        ****      CyGlobalIntEnable;
  47              		.loc 1 22 0
  48              		.syntax unified
  49              	@ 22 "main.c" 1
  50 0008 62B6     		CPSIE   i
  51              	@ 0 "" 2
  23:main.c        ****    char str[15];
  24:main.c        **** uint32_t aun_red_buffer[500]
  25:main.c        **** ;
  26:main.c        **** uint32_t aun_ir_buffer[500];
  27:main.c        **** int32_t n_ir_buffer_length;    //data length
  28:main.c        **** int32_t n_sp02; //SPO2 value
  29:main.c        **** int8_t ch_spo2_valid;   //indicator to show if the SP02 calculation is valid
  30:main.c        **** int32_t n_heart_rate;   //heart rate value
  31:main.c        **** int8_t  ch_hr_valid;    //indicator to show if the heart rate calculation is valid
  32:main.c        **** uint8_t uch_dummy;
  33:main.c        ****   
  34:main.c        ****   I2C_Start();
  52              		.loc 1 34 0
  53              		.thumb
  54              		.syntax unified
  55 000a FFF7FEFF 		bl	I2C_Start
  56              	.LVL0:
  35:main.c        ****   UART_1_Start();
  57              		.loc 1 35 0
  58 000e FFF7FEFF 		bl	UART_1_Start
  59              	.LVL1:
  36:main.c        ****   uint32_t un_min, un_max, un_prev_data;
  37:main.c        **** int32_t n_brightness;
  38:main.c        ****    float f_temp;
  39:main.c        ****   
  40:main.c        **** max_Reset();
  60              		.loc 1 40 0
  61 0012 FFF7FEFF 		bl	max_Reset
  62              	.LVL2:
  41:main.c        **** CyDelay(1000);  
  63              		.loc 1 41 0
  64 0016 4FF47A70 		mov	r0, #1000
  65 001a FFF7FEFF 		bl	CyDelay
  66              	.LVL3:
  42:main.c        **** 
  43:main.c        **** int i;
  44:main.c        ****   max_ReadReg(0,&uch_dummy);
  67              		.loc 1 44 0
  68 001e 0DF11201 		add	r1, sp, #18
  69 0022 0020     		movs	r0, #0
  70 0024 FFF7FEFF 		bl	max_ReadReg
ARM GAS  C:\Users\furka\AppData\Local\Temp\ccNNSXMf.s 			page 3


  71              	.LVL4:
  45:main.c        ****    while(UART_1_GetChar()==0)
  72              		.loc 1 45 0
  73 0028 0FE0     		b	.L2
  74              	.L3:
  46:main.c        ****    {
  47:main.c        ****        sprintf(str,"Press any key to start conversion\n\r");
  75              		.loc 1 47 0
  76 002a 0DF57C64 		add	r4, sp, #4032
  77 002e 904D     		ldr	r5, .L27
  78 0030 0FCD     		ldmia	r5!, {r0, r1, r2, r3}
  79 0032 0FC4     		stmia	r4!, {r0, r1, r2, r3}
  80 0034 0FCD     		ldmia	r5!, {r0, r1, r2, r3}
  81 0036 0FC4     		stmia	r4!, {r0, r1, r2, r3}
  82 0038 2B68     		ldr	r3, [r5]
  83 003a 2360     		str	r3, [r4]
  48:main.c        ****        UART_1_PutString(str);
  84              		.loc 1 48 0
  85 003c 0DF57C60 		add	r0, sp, #4032
  86 0040 FFF7FEFF 		bl	UART_1_PutString
  87              	.LVL5:
  49:main.c        ****         CyDelay(100);
  88              		.loc 1 49 0
  89 0044 6420     		movs	r0, #100
  90 0046 FFF7FEFF 		bl	CyDelay
  91              	.LVL6:
  92              	.L2:
  45:main.c        ****    {
  93              		.loc 1 45 0
  94 004a FFF7FEFF 		bl	UART_1_GetChar
  95              	.LVL7:
  96 004e 0028     		cmp	r0, #0
  97 0050 EBD0     		beq	.L3
  50:main.c        ****    }
  51:main.c        ****    uch_dummy=getchar();
  98              		.loc 1 51 0
  99 0052 884B     		ldr	r3, .L27+4
 100 0054 1868     		ldr	r0, [r3]
 101 0056 4268     		ldr	r2, [r0, #4]
 102 0058 5368     		ldr	r3, [r2, #4]
 103 005a 013B     		subs	r3, r3, #1
 104 005c 5360     		str	r3, [r2, #4]
 105 005e 002B     		cmp	r3, #0
 106 0060 04DA     		bge	.L4
 107              		.loc 1 51 0 is_stmt 0 discriminator 1
 108 0062 4168     		ldr	r1, [r0, #4]
 109 0064 FFF7FEFF 		bl	__srget_r
 110              	.LVL8:
 111 0068 C0B2     		uxtb	r0, r0
 112 006a 04E0     		b	.L5
 113              	.L4:
 114              		.loc 1 51 0 discriminator 2
 115 006c 4268     		ldr	r2, [r0, #4]
 116 006e 1368     		ldr	r3, [r2]
 117 0070 591C     		adds	r1, r3, #1
 118 0072 1160     		str	r1, [r2]
 119 0074 1878     		ldrb	r0, [r3]	@ zero_extendqisi2
ARM GAS  C:\Users\furka\AppData\Local\Temp\ccNNSXMf.s 			page 4


 120              	.L5:
 121              		.loc 1 51 0 discriminator 4
 122 0076 8DF81200 		strb	r0, [sp, #18]
 123              	.LVL9:
  52:main.c        ****   un_min=0x3FFFF;
  53:main.c        ****    un_max=0;
  54:main.c        **** n_brightness=0;
  55:main.c        ****    maxim_max30102_init();
 124              		.loc 1 55 0 is_stmt 1 discriminator 4
 125 007a FFF7FEFF 		bl	maxim_max30102_init
 126              	.LVL10:
  56:main.c        ****    
  57:main.c        ****    n_ir_buffer_length=500;
  58:main.c        ****    for( i=0;i<n_ir_buffer_length;i++){
 127              		.loc 1 58 0 discriminator 4
 128 007e 0024     		movs	r4, #0
  53:main.c        **** n_brightness=0;
 129              		.loc 1 53 0 discriminator 4
 130 0080 2646     		mov	r6, r4
  52:main.c        ****   un_min=0x3FFFF;
 131              		.loc 1 52 0 discriminator 4
 132 0082 7D4D     		ldr	r5, .L27+8
 133              		.loc 1 58 0 discriminator 4
 134 0084 29E0     		b	.L6
 135              	.LVL11:
 136              	.L7:
  59:main.c        ****        
  60:main.c        ****        while(MaxINT_Read()==1);
 137              		.loc 1 60 0 discriminator 1
 138 0086 FFF7FEFF 		bl	MaxINT_Read
 139              	.LVL12:
 140 008a 0128     		cmp	r0, #1
 141 008c FBD0     		beq	.L7
  61:main.c        ****    max_Read_FIFO((aun_red_buffer+i),(aun_ir_buffer+i));
 142              		.loc 1 61 0
 143 008e A000     		lsls	r0, r4, #2
 144 0090 0DF5FE67 		add	r7, sp, #2032
 145 0094 08AB     		add	r3, sp, #32
 146 0096 1918     		adds	r1, r3, r0
 147 0098 3844     		add	r0, r0, r7
 148 009a FFF7FEFF 		bl	max_Read_FIFO
 149              	.LVL13:
  62:main.c        ****    if(un_min>aun_red_buffer[i])
 150              		.loc 1 62 0
 151 009e 57F82420 		ldr	r2, [r7, r4, lsl #2]
 152 00a2 9542     		cmp	r5, r2
 153 00a4 00D9     		bls	.L8
  63:main.c        ****            un_min=aun_red_buffer[i]; //update signal min
 154              		.loc 1 63 0
 155 00a6 1546     		mov	r5, r2
 156              	.LVL14:
 157              	.L8:
  64:main.c        ****        if(un_max<aun_red_buffer[i])
 158              		.loc 1 64 0
 159 00a8 9642     		cmp	r6, r2
 160 00aa 00D2     		bcs	.L9
  65:main.c        ****            un_max=aun_red_buffer[i];
ARM GAS  C:\Users\furka\AppData\Local\Temp\ccNNSXMf.s 			page 5


 161              		.loc 1 65 0
 162 00ac 1646     		mov	r6, r2
 163              	.LVL15:
 164              	.L9:
  66:main.c        ****            sprintf(str,"red %lu ",(unsigned long)aun_red_buffer[i]);
 165              		.loc 1 66 0 discriminator 2
 166 00ae 7349     		ldr	r1, .L27+12
 167 00b0 0DF57C60 		add	r0, sp, #4032
 168 00b4 FFF7FEFF 		bl	sprintf
 169              	.LVL16:
  67:main.c        ****            UART_1_PutString(str);
 170              		.loc 1 67 0 discriminator 2
 171 00b8 0DF57C60 		add	r0, sp, #4032
 172 00bc FFF7FEFF 		bl	UART_1_PutString
 173              	.LVL17:
  68:main.c        ****              sprintf(str,"ir %lu\r\n",(unsigned long)aun_ir_buffer[i]);
 174              		.loc 1 68 0 discriminator 2
 175 00c0 08AB     		add	r3, sp, #32
 176 00c2 53F82420 		ldr	r2, [r3, r4, lsl #2]
 177 00c6 6E49     		ldr	r1, .L27+16
 178 00c8 0DF57C60 		add	r0, sp, #4032
 179 00cc FFF7FEFF 		bl	sprintf
 180              	.LVL18:
  69:main.c        ****            UART_1_PutString(str);
 181              		.loc 1 69 0 discriminator 2
 182 00d0 0DF57C60 		add	r0, sp, #4032
 183 00d4 FFF7FEFF 		bl	UART_1_PutString
 184              	.LVL19:
  58:main.c        ****        
 185              		.loc 1 58 0 discriminator 2
 186 00d8 0134     		adds	r4, r4, #1
 187              	.LVL20:
 188              	.L6:
  58:main.c        ****        
 189              		.loc 1 58 0 is_stmt 0 discriminator 1
 190 00da B4F5FA7F 		cmp	r4, #500
 191 00de D2DB     		blt	.L7
 192              	.LVL21:
  70:main.c        ****    }
  71:main.c        ****    un_prev_data=aun_red_buffer[i];
  72:main.c        ****    maxim_heart_rate_and_oxygen_saturation(aun_ir_buffer, n_ir_buffer_length, aun_red_buffer, &n_sp0
 193              		.loc 1 72 0 is_stmt 1
 194 00e0 0DF11303 		add	r3, sp, #19
 195 00e4 0293     		str	r3, [sp, #8]
 196 00e6 05AB     		add	r3, sp, #20
 197 00e8 0193     		str	r3, [sp, #4]
 198 00ea 0DF11B03 		add	r3, sp, #27
 199 00ee 0093     		str	r3, [sp]
 200 00f0 07AB     		add	r3, sp, #28
 201 00f2 0DF5FE62 		add	r2, sp, #2032
 202 00f6 4FF4FA71 		mov	r1, #500
 203 00fa 08A8     		add	r0, sp, #32
 204 00fc FFF7FEFF 		bl	maxim_heart_rate_and_oxygen_saturation
 205              	.LVL22:
  54:main.c        ****    maxim_max30102_init();
 206              		.loc 1 54 0
 207 0100 0025     		movs	r5, #0
ARM GAS  C:\Users\furka\AppData\Local\Temp\ccNNSXMf.s 			page 6


 208              	.LVL23:
 209              	.L19:
  73:main.c        **** //max_Temperature();
  74:main.c        **** for(;;)
  75:main.c        ****   { 
  76:main.c        ****       i=0;
  77:main.c        ****        un_min=0x3FFFF;
  78:main.c        ****        un_max=0;
  79:main.c        ****        
  80:main.c        ****        //dumping the first 100 sets of samples in the memory and shift the last 400 sets of samples
  81:main.c        ****        for(i=100;i<500;i++)
 210              		.loc 1 81 0
 211 0102 6423     		movs	r3, #100
  78:main.c        ****        
 212              		.loc 1 78 0
 213 0104 0027     		movs	r7, #0
  77:main.c        ****        un_max=0;
 214              		.loc 1 77 0
 215 0106 5C4E     		ldr	r6, .L27+8
 216              		.loc 1 81 0
 217 0108 15E0     		b	.L10
 218              	.LVL24:
 219              	.L13:
  82:main.c        ****        {
  83:main.c        ****            aun_red_buffer[i-100]=aun_red_buffer[i];
 220              		.loc 1 83 0
 221 010a A3F16402 		sub	r2, r3, #100
 222 010e 0DF5FE61 		add	r1, sp, #2032
 223 0112 51F82300 		ldr	r0, [r1, r3, lsl #2]
 224 0116 41F82200 		str	r0, [r1, r2, lsl #2]
  84:main.c        ****            aun_ir_buffer[i-100]=aun_ir_buffer[i];
 225              		.loc 1 84 0
 226 011a 08A8     		add	r0, sp, #32
 227 011c 50F82340 		ldr	r4, [r0, r3, lsl #2]
 228 0120 40F82240 		str	r4, [r0, r2, lsl #2]
  85:main.c        ****            
  86:main.c        ****            //update the signal min and max
  87:main.c        ****            if(un_min>aun_red_buffer[i])
 229              		.loc 1 87 0
 230 0124 51F82320 		ldr	r2, [r1, r3, lsl #2]
 231 0128 9642     		cmp	r6, r2
 232 012a 00D9     		bls	.L11
  88:main.c        ****            un_min=aun_red_buffer[i];
 233              		.loc 1 88 0
 234 012c 1646     		mov	r6, r2
 235              	.LVL25:
 236              	.L11:
  89:main.c        ****            if(un_max<aun_red_buffer[i])
 237              		.loc 1 89 0
 238 012e 9742     		cmp	r7, r2
 239 0130 00D2     		bcs	.L12
  90:main.c        ****            un_max=aun_red_buffer[i];
 240              		.loc 1 90 0
 241 0132 1746     		mov	r7, r2
 242              	.LVL26:
 243              	.L12:
  81:main.c        ****        {
ARM GAS  C:\Users\furka\AppData\Local\Temp\ccNNSXMf.s 			page 7


 244              		.loc 1 81 0 discriminator 2
 245 0134 0133     		adds	r3, r3, #1
 246              	.LVL27:
 247              	.L10:
  81:main.c        ****        {
 248              		.loc 1 81 0 is_stmt 0 discriminator 1
 249 0136 B3F5FA7F 		cmp	r3, #500
 250 013a E6DB     		blt	.L13
 251 013c 4FF4C874 		mov	r4, #400
 252 0140 81E0     		b	.L14
 253              	.LVL28:
 254              	.L18:
  91:main.c        ****        }
  92:main.c        ****        
  93:main.c        ****        //take 100 sets of samples before calculating the heart rate.
  94:main.c        ****        for(i=400;i<500;i++)
  95:main.c        ****        {
  96:main.c        ****            un_prev_data=aun_red_buffer[i-1];
 255              		.loc 1 96 0 is_stmt 1
 256 0142 631E     		subs	r3, r4, #1
 257 0144 0DF5FE62 		add	r2, sp, #2032
 258 0148 52F82390 		ldr	r9, [r2, r3, lsl #2]
 259              	.LVL29:
 260              	.L15:
  97:main.c        ****            while(MaxINT_Read()==1);
 261              		.loc 1 97 0 discriminator 1
 262 014c FFF7FEFF 		bl	MaxINT_Read
 263              	.LVL30:
 264 0150 0128     		cmp	r0, #1
 265 0152 FBD0     		beq	.L15
  98:main.c        ****            max_Read_FIFO((aun_red_buffer+i), (aun_ir_buffer+i));
 266              		.loc 1 98 0
 267 0154 A000     		lsls	r0, r4, #2
 268 0156 0DF5FE68 		add	r8, sp, #2032
 269 015a 08AB     		add	r3, sp, #32
 270 015c 1918     		adds	r1, r3, r0
 271 015e 4044     		add	r0, r0, r8
 272 0160 FFF7FEFF 		bl	max_Read_FIFO
 273              	.LVL31:
  99:main.c        ****        
 100:main.c        ****            if(aun_red_buffer[i]>un_prev_data)
 274              		.loc 1 100 0
 275 0164 58F82480 		ldr	r8, [r8, r4, lsl #2]
 276 0168 C145     		cmp	r9, r8
 277 016a 13D2     		bcs	.L16
 101:main.c        ****            {
 102:main.c        ****                f_temp=aun_red_buffer[i]-un_prev_data;
 278              		.loc 1 102 0
 279 016c C9EB0800 		rsb	r0, r9, r8
 280 0170 FFF7FEFF 		bl	__aeabi_ui2f
 281              	.LVL32:
 282 0174 8146     		mov	r9, r0
 283              	.LVL33:
 103:main.c        ****                f_temp/=(un_max-un_min);
 284              		.loc 1 103 0
 285 0176 B81B     		subs	r0, r7, r6
 286              	.LVL34:
ARM GAS  C:\Users\furka\AppData\Local\Temp\ccNNSXMf.s 			page 8


 287 0178 FFF7FEFF 		bl	__aeabi_ui2f
 288              	.LVL35:
 289 017c 0146     		mov	r1, r0
 290 017e 4846     		mov	r0, r9
 291 0180 FFF7FEFF 		bl	__aeabi_fdiv
 292              	.LVL36:
 104:main.c        ****                f_temp*=MAX_BRIGHTNESS;
 293              		.loc 1 104 0
 294 0184 3F49     		ldr	r1, .L27+20
 295 0186 FFF7FEFF 		bl	__aeabi_fmul
 296              	.LVL37:
 105:main.c        ****                n_brightness-=(int)f_temp;
 297              		.loc 1 105 0
 298 018a FFF7FEFF 		bl	__aeabi_f2iz
 299              	.LVL38:
 106:main.c        ****                if(n_brightness<0)
 300              		.loc 1 106 0
 301 018e 2D1A     		subs	r5, r5, r0
 302              	.LVL39:
 303 0190 18D5     		bpl	.L17
 304 0192 14E0     		b	.L24
 305              	.LVL40:
 306              	.L16:
 107:main.c        ****                    n_brightness=0;
 108:main.c        ****            }
 109:main.c        ****            else
 110:main.c        ****            {
 111:main.c        ****                f_temp=un_prev_data-aun_red_buffer[i];
 307              		.loc 1 111 0
 308 0194 C8EB0900 		rsb	r0, r8, r9
 309 0198 FFF7FEFF 		bl	__aeabi_ui2f
 310              	.LVL41:
 311 019c 8146     		mov	r9, r0
 312              	.LVL42:
 112:main.c        ****                f_temp/=(un_max-un_min);
 313              		.loc 1 112 0
 314 019e B81B     		subs	r0, r7, r6
 315              	.LVL43:
 316 01a0 FFF7FEFF 		bl	__aeabi_ui2f
 317              	.LVL44:
 318 01a4 0146     		mov	r1, r0
 319 01a6 4846     		mov	r0, r9
 320 01a8 FFF7FEFF 		bl	__aeabi_fdiv
 321              	.LVL45:
 113:main.c        ****                f_temp*=MAX_BRIGHTNESS;
 322              		.loc 1 113 0
 323 01ac 3549     		ldr	r1, .L27+20
 324 01ae FFF7FEFF 		bl	__aeabi_fmul
 325              	.LVL46:
 114:main.c        ****                n_brightness+=(int)f_temp;
 326              		.loc 1 114 0
 327 01b2 FFF7FEFF 		bl	__aeabi_f2iz
 328              	.LVL47:
 329 01b6 0544     		add	r5, r5, r0
 330              	.LVL48:
 115:main.c        ****                if(n_brightness>MAX_BRIGHTNESS)
 331              		.loc 1 115 0
ARM GAS  C:\Users\furka\AppData\Local\Temp\ccNNSXMf.s 			page 9


 332 01b8 FF2D     		cmp	r5, #255
 333 01ba 02DC     		bgt	.L25
 334 01bc 02E0     		b	.L17
 335              	.L24:
 107:main.c        ****            }
 336              		.loc 1 107 0
 337 01be 0025     		movs	r5, #0
 338              	.LVL49:
 339 01c0 00E0     		b	.L17
 340              	.LVL50:
 341              	.L25:
 116:main.c        ****                    n_brightness=MAX_BRIGHTNESS;
 342              		.loc 1 116 0
 343 01c2 FF25     		movs	r5, #255
 344              	.LVL51:
 345              	.L17:
 117:main.c        ****            }
 118:main.c        **** 
 119:main.c        ****            //send samples and calculation result to terminal program through UART
 120:main.c        ****            sprintf(str,"red=%lu ", (unsigned long)aun_red_buffer[i]);
 346              		.loc 1 120 0 discriminator 2
 347 01c4 4246     		mov	r2, r8
 348 01c6 3049     		ldr	r1, .L27+24
 349 01c8 0DF57C60 		add	r0, sp, #4032
 350 01cc FFF7FEFF 		bl	sprintf
 351              	.LVL52:
 121:main.c        ****            UART_1_PutString(str);
 352              		.loc 1 121 0 discriminator 2
 353 01d0 0DF57C60 		add	r0, sp, #4032
 354 01d4 FFF7FEFF 		bl	UART_1_PutString
 355              	.LVL53:
 122:main.c        ****            sprintf(str,"ir=%lu ", (unsigned long)aun_ir_buffer[i]);
 356              		.loc 1 122 0 discriminator 2
 357 01d8 08AB     		add	r3, sp, #32
 358 01da 53F82420 		ldr	r2, [r3, r4, lsl #2]
 359 01de 2B49     		ldr	r1, .L27+28
 360 01e0 0DF57C60 		add	r0, sp, #4032
 361 01e4 FFF7FEFF 		bl	sprintf
 362              	.LVL54:
 123:main.c        ****            UART_1_PutString(str);
 363              		.loc 1 123 0 discriminator 2
 364 01e8 0DF57C60 		add	r0, sp, #4032
 365 01ec FFF7FEFF 		bl	UART_1_PutString
 366              	.LVL55:
 124:main.c        ****            sprintf(str,"HR=%lu ", (unsigned long)n_heart_rate);
 367              		.loc 1 124 0 discriminator 2
 368 01f0 059A     		ldr	r2, [sp, #20]
 369 01f2 2749     		ldr	r1, .L27+32
 370 01f4 0DF57C60 		add	r0, sp, #4032
 371 01f8 FFF7FEFF 		bl	sprintf
 372              	.LVL56:
 125:main.c        ****            UART_1_PutString(str);
 373              		.loc 1 125 0 discriminator 2
 374 01fc 0DF57C60 		add	r0, sp, #4032
 375 0200 FFF7FEFF 		bl	UART_1_PutString
 376              	.LVL57:
 126:main.c        ****            sprintf( str,"HRvalid=%lu ", (unsigned long)ch_hr_valid);
ARM GAS  C:\Users\furka\AppData\Local\Temp\ccNNSXMf.s 			page 10


 377              		.loc 1 126 0 discriminator 2
 378 0204 9DF91320 		ldrsb	r2, [sp, #19]
 379 0208 2249     		ldr	r1, .L27+36
 380 020a 0DF57C60 		add	r0, sp, #4032
 381 020e FFF7FEFF 		bl	sprintf
 382              	.LVL58:
 127:main.c        ****            UART_1_PutString(str);
 383              		.loc 1 127 0 discriminator 2
 384 0212 0DF57C60 		add	r0, sp, #4032
 385 0216 FFF7FEFF 		bl	UART_1_PutString
 386              	.LVL59:
 128:main.c        ****            sprintf(str,"SpO2=%lu ", (unsigned long)n_sp02);
 387              		.loc 1 128 0 discriminator 2
 388 021a 079A     		ldr	r2, [sp, #28]
 389 021c 1E49     		ldr	r1, .L27+40
 390 021e 0DF57C60 		add	r0, sp, #4032
 391 0222 FFF7FEFF 		bl	sprintf
 392              	.LVL60:
 129:main.c        ****            UART_1_PutString(str);
 393              		.loc 1 129 0 discriminator 2
 394 0226 0DF57C60 		add	r0, sp, #4032
 395 022a FFF7FEFF 		bl	UART_1_PutString
 396              	.LVL61:
 130:main.c        ****            sprintf(str,"SPO2Valid=%lu \n\r", (unsigned long)ch_spo2_valid);
 397              		.loc 1 130 0 discriminator 2
 398 022e 9DF91B20 		ldrsb	r2, [sp, #27]
 399 0232 1A49     		ldr	r1, .L27+44
 400 0234 0DF57C60 		add	r0, sp, #4032
 401 0238 FFF7FEFF 		bl	sprintf
 402              	.LVL62:
 131:main.c        ****            UART_1_PutString(str);
 403              		.loc 1 131 0 discriminator 2
 404 023c 0DF57C60 		add	r0, sp, #4032
 405 0240 FFF7FEFF 		bl	UART_1_PutString
 406              	.LVL63:
  94:main.c        ****        {
 407              		.loc 1 94 0 discriminator 2
 408 0244 0134     		adds	r4, r4, #1
 409              	.LVL64:
 410              	.L14:
  94:main.c        ****        {
 411              		.loc 1 94 0 is_stmt 0 discriminator 1
 412 0246 B4F5FA7F 		cmp	r4, #500
 413 024a FFF67AAF 		blt	.L18
 132:main.c        ****           
 133:main.c        ****        }
 134:main.c        ****        maxim_heart_rate_and_oxygen_saturation(aun_ir_buffer, n_ir_buffer_length, aun_red_buffer, &n
 414              		.loc 1 134 0 is_stmt 1
 415 024e 0DF11303 		add	r3, sp, #19
 416 0252 0293     		str	r3, [sp, #8]
 417 0254 05AB     		add	r3, sp, #20
 418 0256 0193     		str	r3, [sp, #4]
 419 0258 0DF11B03 		add	r3, sp, #27
 420 025c 0093     		str	r3, [sp]
 421 025e 07AB     		add	r3, sp, #28
 422 0260 0DF5FE62 		add	r2, sp, #2032
 423 0264 4FF4FA71 		mov	r1, #500
ARM GAS  C:\Users\furka\AppData\Local\Temp\ccNNSXMf.s 			page 11


 424 0268 08A8     		add	r0, sp, #32
 425 026a FFF7FEFF 		bl	maxim_heart_rate_and_oxygen_saturation
 426              	.LVL65:
 135:main.c        ****    }
 427              		.loc 1 135 0
 428 026e 48E7     		b	.L19
 429              	.L28:
 430              		.align	2
 431              	.L27:
 432 0270 00000000 		.word	.LC0
 433 0274 00000000 		.word	_impure_ptr
 434 0278 FFFF0300 		.word	262143
 435 027c 24000000 		.word	.LC1
 436 0280 30000000 		.word	.LC2
 437 0284 00007F43 		.word	1132396544
 438 0288 3C000000 		.word	.LC3
 439 028c 48000000 		.word	.LC4
 440 0290 50000000 		.word	.LC5
 441 0294 58000000 		.word	.LC6
 442 0298 68000000 		.word	.LC7
 443 029c 74000000 		.word	.LC8
 444              		.cfi_endproc
 445              	.LFE64:
 446              		.size	main, .-main
 447              		.comm	temp_frac,8,8
 448              		.comm	temp1,8,8
 449              		.comm	temp,8,8
 450              		.section	.rodata.str1.4,"aMS",%progbits,1
 451              		.align	2
 452              	.LC0:
 453 0000 50726573 		.ascii	"Press any key to start conversion\012\015\000"
 453      7320616E 
 453      79206B65 
 453      7920746F 
 453      20737461 
 454              	.LC1:
 455 0024 72656420 		.ascii	"red %lu \000"
 455      256C7520 
 455      00
 456 002d 000000   		.space	3
 457              	.LC2:
 458 0030 69722025 		.ascii	"ir %lu\015\012\000"
 458      6C750D0A 
 458      00
 459 0039 000000   		.space	3
 460              	.LC3:
 461 003c 7265643D 		.ascii	"red=%lu \000"
 461      256C7520 
 461      00
 462 0045 000000   		.space	3
 463              	.LC4:
 464 0048 69723D25 		.ascii	"ir=%lu \000"
 464      6C752000 
 465              	.LC5:
 466 0050 48523D25 		.ascii	"HR=%lu \000"
 466      6C752000 
 467              	.LC6:
ARM GAS  C:\Users\furka\AppData\Local\Temp\ccNNSXMf.s 			page 12


 468 0058 48527661 		.ascii	"HRvalid=%lu \000"
 468      6C69643D 
 468      256C7520 
 468      00
 469 0065 000000   		.space	3
 470              	.LC7:
 471 0068 53704F32 		.ascii	"SpO2=%lu \000"
 471      3D256C75 
 471      2000
 472 0072 0000     		.space	2
 473              	.LC8:
 474 0074 53504F32 		.ascii	"SPO2Valid=%lu \012\015\000"
 474      56616C69 
 474      643D256C 
 474      75200A0D 
 474      00
 475              		.text
 476              	.Letext0:
 477              		.file 2 "c:\\program files (x86)\\cypress\\psoc creator\\4.2\\psoc creator\\import\\gnu\\arm\\5.4.
 478              		.file 3 "c:\\program files (x86)\\cypress\\psoc creator\\4.2\\psoc creator\\import\\gnu\\arm\\5.4.
 479              		.file 4 "c:\\program files (x86)\\cypress\\psoc creator\\4.2\\psoc creator\\import\\gnu\\arm\\5.4.
 480              		.file 5 "c:\\program files (x86)\\cypress\\psoc creator\\4.2\\psoc creator\\import\\gnu\\arm\\5.4.
 481              		.file 6 "c:\\program files (x86)\\cypress\\psoc creator\\4.2\\psoc creator\\import\\gnu\\arm\\5.4.
 482              		.file 7 "c:\\program files (x86)\\cypress\\psoc creator\\4.2\\psoc creator\\import\\gnu\\arm\\5.4.
 483              		.file 8 "Generated_Source\\PSoC5/core_cm3.h"
 484              		.file 9 "Generated_Source\\PSoC5/I2C.h"
 485              		.file 10 "Generated_Source\\PSoC5/UART_1.h"
 486              		.file 11 "./max30102.h"
 487              		.file 12 "Generated_Source\\PSoC5/CyLib.h"
 488              		.file 13 "c:\\program files (x86)\\cypress\\psoc creator\\4.2\\psoc creator\\import\\gnu\\arm\\5.4
 489              		.file 14 "Generated_Source\\PSoC5/MaxINT.h"
 490              		.file 15 "./algorithm.h"