ARM GAS  C:\Users\furka\AppData\Local\Temp\ccUtBk8k.s 			page 1


   1              		.syntax unified
   2              		.cpu cortex-m3
   3              		.fpu softvfp
   4              		.eabi_attribute 20, 1
   5              		.eabi_attribute 21, 1
   6              		.eabi_attribute 23, 3
   7              		.eabi_attribute 24, 1
   8              		.eabi_attribute 25, 1
   9              		.eabi_attribute 26, 1
  10              		.eabi_attribute 30, 1
  11              		.eabi_attribute 34, 1
  12              		.eabi_attribute 18, 4
  13              		.thumb
  14              		.syntax unified
  15              		.file	"max30102.c"
  16              		.text
  17              	.Ltext0:
  18              		.cfi_sections	.debug_frame
  19              		.section	.text.max_WriteReg,"ax",%progbits
  20              		.align	2
  21              		.global	max_WriteReg
  22              		.thumb
  23              		.thumb_func
  24              		.type	max_WriteReg, %function
  25              	max_WriteReg:
  26              	.LFB65:
  27              		.file 1 "max30102.c"
   1:max30102.c    **** #include <max30102.h>
   2:max30102.c    **** bool maxim_max30102_init()
   3:max30102.c    **** 
   4:max30102.c    **** {
   5:max30102.c    ****       if(!max_WriteReg(REG_INTR_ENABLE_1,0xc0)) // INTR setting
   6:max30102.c    ****       return false;
   7:max30102.c    ****       if(!max_WriteReg(REG_INTR_ENABLE_2,0x00))
   8:max30102.c    ****       return false;
   9:max30102.c    ****       if(!max_WriteReg(REG_FIFO_WR_PTR,0x00))  //FIFO_WR_PTR[4:0]
  10:max30102.c    ****       return false;
  11:max30102.c    ****       if(!max_WriteReg(REG_OVF_COUNTER,0x00))  //OVF_COUNTER[4:0]
  12:max30102.c    ****       return false;
  13:max30102.c    ****       if(!max_WriteReg(REG_FIFO_RD_PTR,0x00))  //FIFO_RD_PTR[4:0]
  14:max30102.c    ****       return false;
  15:max30102.c    ****       if(!max_WriteReg(REG_FIFO_CONFIG,0x0f))  //sample avg = 1, fifo rollover=false, fifo almost f
  16:max30102.c    ****       return false;
  17:max30102.c    ****       if(!max_WriteReg(REG_MODE_CONFIG,0x03))  //0x02 for Red only, 0x03 for SpO2 mode 0x07 multimo
  18:max30102.c    ****       return false; 
  19:max30102.c    ****       if(!max_WriteReg(REG_SPO2_CONFIG,0x27))  // SPO2_ADC range = 4096nA, SPO2 sample rate (100 Hz
  20:max30102.c    ****       return false;  
  21:max30102.c    ****       if(!max_WriteReg(REG_LED1_PA,0x24))   //Choose value for ~ 7mA for LED1
  22:max30102.c    ****       return false;
  23:max30102.c    ****       if(!max_WriteReg(REG_LED2_PA,0x24))  // Choose value for ~ 7mA for LED2
  24:max30102.c    ****       return false; 
  25:max30102.c    ****       if(!max_WriteReg(REG_PILOT_PA,0x7f))  // Choose value for ~ 25mA for Pilot LED
  26:max30102.c    ****       return false;
  27:max30102.c    ****       return true;  
  28:max30102.c    **** }
  29:max30102.c    **** bool max_WriteReg(uint8_t Reg, uint8_t Value){
  28              		.loc 1 29 0
ARM GAS  C:\Users\furka\AppData\Local\Temp\ccUtBk8k.s 			page 2


  29              		.cfi_startproc
  30              		@ args = 0, pretend = 0, frame = 8
  31              		@ frame_needed = 0, uses_anonymous_args = 0
  32              	.LVL0:
  33 0000 00B5     		push	{lr}
  34              		.cfi_def_cfa_offset 4
  35              		.cfi_offset 14, -4
  36 0002 83B0     		sub	sp, sp, #12
  37              		.cfi_def_cfa_offset 16
  30:max30102.c    ****     char Write_Buf[2]={0};
  31:max30102.c    ****     Write_Buf[0]=Reg;               
  38              		.loc 1 31 0
  39 0004 8DF80400 		strb	r0, [sp, #4]
  32:max30102.c    ****     Write_Buf[1]=Value;            
  40              		.loc 1 32 0
  41 0008 8DF80510 		strb	r1, [sp, #5]
  33:max30102.c    ****     
  34:max30102.c    ****     I2C_MasterWriteBuf(I2C_ADDRESS, (uint8_t *)Write_Buf, 2, I2C_MODE_COMPLETE_XFER);
  42              		.loc 1 34 0
  43 000c 0023     		movs	r3, #0
  44 000e 0222     		movs	r2, #2
  45 0010 01A9     		add	r1, sp, #4
  46              	.LVL1:
  47 0012 5720     		movs	r0, #87
  48              	.LVL2:
  49 0014 FFF7FEFF 		bl	I2C_MasterWriteBuf
  50              	.LVL3:
  51              	.L2:
  35:max30102.c    ****     while((I2C_MasterStatus()&I2C_MSTAT_WR_CMPLT)==0){}
  52              		.loc 1 35 0 discriminator 1
  53 0018 FFF7FEFF 		bl	I2C_MasterStatus
  54              	.LVL4:
  55 001c 10F0020F 		tst	r0, #2
  56 0020 FAD0     		beq	.L2
  36:max30102.c    ****     
  37:max30102.c    ****     return true;
  38:max30102.c    **** 
  39:max30102.c    **** }
  57              		.loc 1 39 0
  58 0022 0120     		movs	r0, #1
  59 0024 03B0     		add	sp, sp, #12
  60              		.cfi_def_cfa_offset 4
  61              		@ sp needed
  62 0026 5DF804FB 		ldr	pc, [sp], #4
  63              		.cfi_endproc
  64              	.LFE65:
  65              		.size	max_WriteReg, .-max_WriteReg
  66 002a 00BF     		.section	.text.maxim_max30102_init,"ax",%progbits
  67              		.align	2
  68              		.global	maxim_max30102_init
  69              		.thumb
  70              		.thumb_func
  71              		.type	maxim_max30102_init, %function
  72              	maxim_max30102_init:
  73              	.LFB64:
   4:max30102.c    ****       if(!max_WriteReg(REG_INTR_ENABLE_1,0xc0)) // INTR setting
  74              		.loc 1 4 0
ARM GAS  C:\Users\furka\AppData\Local\Temp\ccUtBk8k.s 			page 3


  75              		.cfi_startproc
  76              		@ args = 0, pretend = 0, frame = 0
  77              		@ frame_needed = 0, uses_anonymous_args = 0
  78 0000 08B5     		push	{r3, lr}
  79              		.cfi_def_cfa_offset 8
  80              		.cfi_offset 3, -8
  81              		.cfi_offset 14, -4
   5:max30102.c    ****       return false;
  82              		.loc 1 5 0
  83 0002 C021     		movs	r1, #192
  84 0004 0220     		movs	r0, #2
  85 0006 FFF7FEFF 		bl	max_WriteReg
  86              	.LVL5:
  87 000a 0346     		mov	r3, r0
  88 000c D0B3     		cbz	r0, .L5
   7:max30102.c    ****       return false;
  89              		.loc 1 7 0
  90 000e 0021     		movs	r1, #0
  91 0010 0320     		movs	r0, #3
  92 0012 FFF7FEFF 		bl	max_WriteReg
  93              	.LVL6:
  94 0016 0346     		mov	r3, r0
  95 0018 A0B3     		cbz	r0, .L5
   9:max30102.c    ****       return false;
  96              		.loc 1 9 0
  97 001a 0021     		movs	r1, #0
  98 001c 0420     		movs	r0, #4
  99 001e FFF7FEFF 		bl	max_WriteReg
 100              	.LVL7:
 101 0022 0346     		mov	r3, r0
 102 0024 70B3     		cbz	r0, .L5
  11:max30102.c    ****       return false;
 103              		.loc 1 11 0
 104 0026 0021     		movs	r1, #0
 105 0028 0520     		movs	r0, #5
 106 002a FFF7FEFF 		bl	max_WriteReg
 107              	.LVL8:
 108 002e 0346     		mov	r3, r0
 109 0030 40B3     		cbz	r0, .L5
  13:max30102.c    ****       return false;
 110              		.loc 1 13 0
 111 0032 0021     		movs	r1, #0
 112 0034 0620     		movs	r0, #6
 113 0036 FFF7FEFF 		bl	max_WriteReg
 114              	.LVL9:
 115 003a 0346     		mov	r3, r0
 116 003c 10B3     		cbz	r0, .L5
  15:max30102.c    ****       return false;
 117              		.loc 1 15 0
 118 003e 0F21     		movs	r1, #15
 119 0040 0820     		movs	r0, #8
 120 0042 FFF7FEFF 		bl	max_WriteReg
 121              	.LVL10:
 122 0046 0346     		mov	r3, r0
 123 0048 E0B1     		cbz	r0, .L5
  17:max30102.c    ****       return false; 
 124              		.loc 1 17 0
ARM GAS  C:\Users\furka\AppData\Local\Temp\ccUtBk8k.s 			page 4


 125 004a 0321     		movs	r1, #3
 126 004c 0920     		movs	r0, #9
 127 004e FFF7FEFF 		bl	max_WriteReg
 128              	.LVL11:
 129 0052 0346     		mov	r3, r0
 130 0054 B0B1     		cbz	r0, .L5
  19:max30102.c    ****       return false;  
 131              		.loc 1 19 0
 132 0056 2721     		movs	r1, #39
 133 0058 0A20     		movs	r0, #10
 134 005a FFF7FEFF 		bl	max_WriteReg
 135              	.LVL12:
 136 005e 0346     		mov	r3, r0
 137 0060 80B1     		cbz	r0, .L5
  21:max30102.c    ****       return false;
 138              		.loc 1 21 0
 139 0062 2421     		movs	r1, #36
 140 0064 0C20     		movs	r0, #12
 141 0066 FFF7FEFF 		bl	max_WriteReg
 142              	.LVL13:
 143 006a 0346     		mov	r3, r0
 144 006c 50B1     		cbz	r0, .L5
  23:max30102.c    ****       return false; 
 145              		.loc 1 23 0
 146 006e 2421     		movs	r1, #36
 147 0070 0D20     		movs	r0, #13
 148 0072 FFF7FEFF 		bl	max_WriteReg
 149              	.LVL14:
 150 0076 0346     		mov	r3, r0
 151 0078 20B1     		cbz	r0, .L5
  25:max30102.c    ****       return false;
 152              		.loc 1 25 0
 153 007a 7F21     		movs	r1, #127
 154 007c 1020     		movs	r0, #16
 155 007e FFF7FEFF 		bl	max_WriteReg
 156              	.LVL15:
 157 0082 0346     		mov	r3, r0
 158              	.L5:
  28:max30102.c    **** bool max_WriteReg(uint8_t Reg, uint8_t Value){
 159              		.loc 1 28 0
 160 0084 1846     		mov	r0, r3
 161 0086 08BD     		pop	{r3, pc}
 162              		.cfi_endproc
 163              	.LFE64:
 164              		.size	maxim_max30102_init, .-maxim_max30102_init
 165              		.section	.text.max_ReadReg,"ax",%progbits
 166              		.align	2
 167              		.global	max_ReadReg
 168              		.thumb
 169              		.thumb_func
 170              		.type	max_ReadReg, %function
 171              	max_ReadReg:
 172              	.LFB66:
  40:max30102.c    **** bool max_ReadReg(uint8_t Reg,uint8_t *Value ){ // *Value pointer
 173              		.loc 1 40 0
 174              		.cfi_startproc
 175              		@ args = 0, pretend = 0, frame = 8
ARM GAS  C:\Users\furka\AppData\Local\Temp\ccUtBk8k.s 			page 5


 176              		@ frame_needed = 0, uses_anonymous_args = 0
 177              	.LVL16:
 178 0000 10B5     		push	{r4, lr}
 179              		.cfi_def_cfa_offset 8
 180              		.cfi_offset 4, -8
 181              		.cfi_offset 14, -4
 182 0002 82B0     		sub	sp, sp, #8
 183              		.cfi_def_cfa_offset 16
 184 0004 0C46     		mov	r4, r1
  41:max30102.c    ****     
  42:max30102.c    ****     char Data[1]={0}; 
  43:max30102.c    ****     Data[0]=Reg;
 185              		.loc 1 43 0
 186 0006 02A9     		add	r1, sp, #8
 187              	.LVL17:
 188 0008 01F8040D 		strb	r0, [r1, #-4]!
  44:max30102.c    ****     //Step 1 Read Modunu Açıyor
  45:max30102.c    ****     I2C_MasterWriteBuf(I2C_ADDRESS, (uint8_t *)Data, 1, I2C_MODE_NO_STOP);
 189              		.loc 1 45 0
 190 000c 0223     		movs	r3, #2
 191 000e 0122     		movs	r2, #1
 192 0010 5720     		movs	r0, #87
 193              	.LVL18:
 194 0012 FFF7FEFF 		bl	I2C_MasterWriteBuf
 195              	.LVL19:
 196              	.L8:
  46:max30102.c    **** 
  47:max30102.c    ****     while((I2C_MasterStatus() & I2C_MSTAT_WR_CMPLT)==0){}
 197              		.loc 1 47 0 discriminator 1
 198 0016 FFF7FEFF 		bl	I2C_MasterStatus
 199              	.LVL20:
 200 001a 10F0020F 		tst	r0, #2
 201 001e FAD0     		beq	.L8
  48:max30102.c    ****     
  49:max30102.c    ****     //Step 2 Read Ediyor
  50:max30102.c    ****   
  51:max30102.c    ****     I2C_MasterReadBuf(I2C_ADDRESS, (uint8_t *)Data, 1, I2C_MODE_REPEAT_START);
 202              		.loc 1 51 0
 203 0020 0123     		movs	r3, #1
 204 0022 1A46     		mov	r2, r3
 205 0024 01A9     		add	r1, sp, #4
 206 0026 5720     		movs	r0, #87
 207 0028 FFF7FEFF 		bl	I2C_MasterReadBuf
 208              	.LVL21:
 209              	.L9:
  52:max30102.c    ****     while((I2C_MasterStatus() & I2C_MSTAT_RD_CMPLT)==0){}
 210              		.loc 1 52 0 discriminator 1
 211 002c FFF7FEFF 		bl	I2C_MasterStatus
 212              	.LVL22:
 213 0030 10F0010F 		tst	r0, #1
 214 0034 FAD0     		beq	.L9
  53:max30102.c    ****     *Value=Data[0];
 215              		.loc 1 53 0
 216 0036 9DF80430 		ldrb	r3, [sp, #4]	@ zero_extendqisi2
 217 003a 2370     		strb	r3, [r4]
  54:max30102.c    ****     return true;
  55:max30102.c    **** }
ARM GAS  C:\Users\furka\AppData\Local\Temp\ccUtBk8k.s 			page 6


 218              		.loc 1 55 0
 219 003c 0120     		movs	r0, #1
 220 003e 02B0     		add	sp, sp, #8
 221              		.cfi_def_cfa_offset 8
 222              		@ sp needed
 223 0040 10BD     		pop	{r4, pc}
 224              		.cfi_endproc
 225              	.LFE66:
 226              		.size	max_ReadReg, .-max_ReadReg
 227 0042 00BF     		.section	.text.max_Reset,"ax",%progbits
 228              		.align	2
 229              		.global	max_Reset
 230              		.thumb
 231              		.thumb_func
 232              		.type	max_Reset, %function
 233              	max_Reset:
 234              	.LFB67:
  56:max30102.c    **** 
  57:max30102.c    **** bool max_Reset(void){
 235              		.loc 1 57 0
 236              		.cfi_startproc
 237              		@ args = 0, pretend = 0, frame = 0
 238              		@ frame_needed = 0, uses_anonymous_args = 0
 239 0000 08B5     		push	{r3, lr}
 240              		.cfi_def_cfa_offset 8
 241              		.cfi_offset 3, -8
 242              		.cfi_offset 14, -4
  58:max30102.c    ****     if(!max_WriteReg(REG_MODE_CONFIG, 0x40))
 243              		.loc 1 58 0
 244 0002 4021     		movs	r1, #64
 245 0004 0920     		movs	r0, #9
 246 0006 FFF7FEFF 		bl	max_WriteReg
 247              	.LVL23:
  59:max30102.c    ****         return false;
  60:max30102.c    ****     else
  61:max30102.c    ****         return true; 
  62:max30102.c    **** }
 248              		.loc 1 62 0
 249 000a 08BD     		pop	{r3, pc}
 250              		.cfi_endproc
 251              	.LFE67:
 252              		.size	max_Reset, .-max_Reset
 253              		.section	.text.max_Read_FIFO,"ax",%progbits
 254              		.align	2
 255              		.global	max_Read_FIFO
 256              		.thumb
 257              		.thumb_func
 258              		.type	max_Read_FIFO, %function
 259              	max_Read_FIFO:
 260              	.LFB68:
  63:max30102.c    **** bool max_Read_FIFO(uint32_t *pun_red_led, uint32_t *pun_ir_led){
 261              		.loc 1 63 0
 262              		.cfi_startproc
 263              		@ args = 0, pretend = 0, frame = 8
 264              		@ frame_needed = 0, uses_anonymous_args = 0
 265              	.LVL24:
 266 0000 30B5     		push	{r4, r5, lr}
ARM GAS  C:\Users\furka\AppData\Local\Temp\ccUtBk8k.s 			page 7


 267              		.cfi_def_cfa_offset 12
 268              		.cfi_offset 4, -12
 269              		.cfi_offset 5, -8
 270              		.cfi_offset 14, -4
 271 0002 83B0     		sub	sp, sp, #12
 272              		.cfi_def_cfa_offset 24
 273 0004 0546     		mov	r5, r0
 274 0006 0C46     		mov	r4, r1
  64:max30102.c    ****     uint32_t un_temp;
  65:max30102.c    ****   unsigned char uch_temp;
  66:max30102.c    ****   *pun_red_led=0;
 275              		.loc 1 66 0
 276 0008 0020     		movs	r0, #0
 277              	.LVL25:
 278 000a 2860     		str	r0, [r5]
  67:max30102.c    ****   *pun_ir_led=0;
 279              		.loc 1 67 0
 280 000c 0860     		str	r0, [r1]
  68:max30102.c    ****   char ach_i2c_data[6];
  69:max30102.c    ****   
  70:max30102.c    ****   //read and clear status register
  71:max30102.c    ****   max_ReadReg(REG_INTR_STATUS_1, &uch_temp);
 281              		.loc 1 71 0
 282 000e 0DF10701 		add	r1, sp, #7
 283              	.LVL26:
 284 0012 FFF7FEFF 		bl	max_ReadReg
 285              	.LVL27:
  72:max30102.c    ****   max_ReadReg(REG_INTR_STATUS_2, &uch_temp);
 286              		.loc 1 72 0
 287 0016 0DF10701 		add	r1, sp, #7
 288 001a 0120     		movs	r0, #1
 289 001c FFF7FEFF 		bl	max_ReadReg
 290              	.LVL28:
  73:max30102.c    ****   
  74:max30102.c    ****   ach_i2c_data[0]=REG_FIFO_DATA;
 291              		.loc 1 74 0
 292 0020 02A9     		add	r1, sp, #8
 293 0022 0723     		movs	r3, #7
 294 0024 01F8083D 		strb	r3, [r1, #-8]!
  75:max30102.c    ****     //Step 1 Read Modunu Açıyor
  76:max30102.c    ****     I2C_MasterWriteBuf(I2C_ADDRESS, (uint8_t *)ach_i2c_data, 1, I2C_MODE_NO_STOP);
 295              		.loc 1 76 0
 296 0028 0223     		movs	r3, #2
 297 002a 0122     		movs	r2, #1
 298 002c 5720     		movs	r0, #87
 299 002e FFF7FEFF 		bl	I2C_MasterWriteBuf
 300              	.LVL29:
 301              	.L14:
  77:max30102.c    ****     while((I2C_MasterStatus() & I2C_MSTAT_WR_CMPLT)==0){}
 302              		.loc 1 77 0 discriminator 1
 303 0032 FFF7FEFF 		bl	I2C_MasterStatus
 304              	.LVL30:
 305 0036 10F0020F 		tst	r0, #2
 306 003a FAD0     		beq	.L14
  78:max30102.c    ****     
  79:max30102.c    ****     //Step 2 Read Ediyor
  80:max30102.c    ****   
ARM GAS  C:\Users\furka\AppData\Local\Temp\ccUtBk8k.s 			page 8


  81:max30102.c    ****     I2C_MasterReadBuf(I2C_ADDRESS, (uint8_t *)ach_i2c_data, 6, I2C_MODE_REPEAT_START);
 307              		.loc 1 81 0
 308 003c 0123     		movs	r3, #1
 309 003e 0622     		movs	r2, #6
 310 0040 6946     		mov	r1, sp
 311 0042 5720     		movs	r0, #87
 312 0044 FFF7FEFF 		bl	I2C_MasterReadBuf
 313              	.LVL31:
 314              	.L15:
  82:max30102.c    ****     while((I2C_MasterStatus() & I2C_MSTAT_RD_CMPLT)==0){}
 315              		.loc 1 82 0 discriminator 1
 316 0048 FFF7FEFF 		bl	I2C_MasterStatus
 317              	.LVL32:
 318 004c 10F0010F 		tst	r0, #1
 319 0050 FAD0     		beq	.L15
  83:max30102.c    ****     
  84:max30102.c    ****  
  85:max30102.c    ****   un_temp=(unsigned char) ach_i2c_data[0];
 320              		.loc 1 85 0
 321 0052 9DF80020 		ldrb	r2, [sp]	@ zero_extendqisi2
 322              	.LVL33:
  86:max30102.c    ****   un_temp<<=16;
  87:max30102.c    ****   *pun_red_led+=un_temp;
 323              		.loc 1 87 0
 324 0056 2B68     		ldr	r3, [r5]
 325 0058 03EB0243 		add	r3, r3, r2, lsl #16
  88:max30102.c    ****   un_temp=(unsigned char) ach_i2c_data[1];
 326              		.loc 1 88 0
 327 005c 9DF80120 		ldrb	r2, [sp, #1]	@ zero_extendqisi2
 328              	.LVL34:
  89:max30102.c    ****   un_temp<<=8;
  90:max30102.c    ****   *pun_red_led+=un_temp;
 329              		.loc 1 90 0
 330 0060 03EB0223 		add	r3, r3, r2, lsl #8
  91:max30102.c    ****   un_temp=(unsigned char) ach_i2c_data[2];
 331              		.loc 1 91 0
 332 0064 9DF80220 		ldrb	r2, [sp, #2]	@ zero_extendqisi2
 333              	.LVL35:
  92:max30102.c    ****   *pun_red_led+=un_temp;
 334              		.loc 1 92 0
 335 0068 1344     		add	r3, r3, r2
 336 006a 2B60     		str	r3, [r5]
  93:max30102.c    ****   
  94:max30102.c    ****   un_temp=(unsigned char) ach_i2c_data[3];
 337              		.loc 1 94 0
 338 006c 9DF80320 		ldrb	r2, [sp, #3]	@ zero_extendqisi2
 339              	.LVL36:
  95:max30102.c    ****   un_temp<<=16;
  96:max30102.c    ****   *pun_ir_led+=un_temp;
 340              		.loc 1 96 0
 341 0070 2368     		ldr	r3, [r4]
 342 0072 03EB0243 		add	r3, r3, r2, lsl #16
  97:max30102.c    ****   un_temp=(unsigned char) ach_i2c_data[4];
 343              		.loc 1 97 0
 344 0076 9DF80420 		ldrb	r2, [sp, #4]	@ zero_extendqisi2
 345              	.LVL37:
  98:max30102.c    ****   un_temp<<=8;
ARM GAS  C:\Users\furka\AppData\Local\Temp\ccUtBk8k.s 			page 9


  99:max30102.c    ****   *pun_ir_led+=un_temp;
 346              		.loc 1 99 0
 347 007a 03EB0223 		add	r3, r3, r2, lsl #8
 100:max30102.c    ****   un_temp=(unsigned char) ach_i2c_data[5];
 348              		.loc 1 100 0
 349 007e 9DF80520 		ldrb	r2, [sp, #5]	@ zero_extendqisi2
 350              	.LVL38:
 101:max30102.c    ****   *pun_ir_led+=un_temp;
 351              		.loc 1 101 0
 352 0082 1344     		add	r3, r3, r2
 353 0084 2360     		str	r3, [r4]
 102:max30102.c    ****   *pun_red_led&=0x03FFFF;  //Mask MSB [23:18]
 354              		.loc 1 102 0
 355 0086 2B68     		ldr	r3, [r5]
 356 0088 C3F31103 		ubfx	r3, r3, #0, #18
 357 008c 2B60     		str	r3, [r5]
 103:max30102.c    ****   *pun_ir_led&=0x03FFFF;  //Mask MSB [23:18]
 358              		.loc 1 103 0
 359 008e 2368     		ldr	r3, [r4]
 360 0090 C3F31103 		ubfx	r3, r3, #0, #18
 361 0094 2360     		str	r3, [r4]
 104:max30102.c    ****   
 105:max30102.c    ****   
 106:max30102.c    ****   return true;
 107:max30102.c    **** }
 362              		.loc 1 107 0
 363 0096 0120     		movs	r0, #1
 364 0098 03B0     		add	sp, sp, #12
 365              		.cfi_def_cfa_offset 12
 366              		@ sp needed
 367 009a 30BD     		pop	{r4, r5, pc}
 368              		.cfi_endproc
 369              	.LFE68:
 370              		.size	max_Read_FIFO, .-max_Read_FIFO
 371              		.global	__aeabi_ui2f
 372              		.global	__aeabi_f2d
 373              		.section	.text.max_Temperature,"ax",%progbits
 374              		.align	2
 375              		.global	max_Temperature
 376              		.thumb
 377              		.thumb_func
 378              		.type	max_Temperature, %function
 379              	max_Temperature:
 380              	.LFB69:
 108:max30102.c    **** 
 109:max30102.c    **** 
 110:max30102.c    **** void max_Temperature(){
 381              		.loc 1 110 0
 382              		.cfi_startproc
 383              		@ args = 0, pretend = 0, frame = 24
 384              		@ frame_needed = 0, uses_anonymous_args = 0
 385 0000 30B5     		push	{r4, r5, lr}
 386              		.cfi_def_cfa_offset 12
 387              		.cfi_offset 4, -12
 388              		.cfi_offset 5, -8
 389              		.cfi_offset 14, -4
 390 0002 87B0     		sub	sp, sp, #28
ARM GAS  C:\Users\furka\AppData\Local\Temp\ccUtBk8k.s 			page 10


 391              		.cfi_def_cfa_offset 40
 111:max30102.c    ****     uint8_t temp,temp1;
 112:max30102.c    ****     float temp_frac, temp_int;
 113:max30102.c    ****     char str[15];
 114:max30102.c    ****         max_WriteReg(REG_TEMP_CONFIG,0x01);
 392              		.loc 1 114 0
 393 0004 0121     		movs	r1, #1
 394 0006 2120     		movs	r0, #33
 395 0008 FFF7FEFF 		bl	max_WriteReg
 396              	.LVL39:
 115:max30102.c    ****         max_ReadReg(REG_TEMP_INTR,&temp);// pointerdaki datayı &temp adresine yazıyor
 397              		.loc 1 115 0
 398 000c 0DF11701 		add	r1, sp, #23
 399 0010 1F20     		movs	r0, #31
 400 0012 FFF7FEFF 		bl	max_ReadReg
 401              	.LVL40:
 116:max30102.c    ****         max_WriteReg(REG_TEMP_CONFIG,0x01);
 402              		.loc 1 116 0
 403 0016 0121     		movs	r1, #1
 404 0018 2120     		movs	r0, #33
 405 001a FFF7FEFF 		bl	max_WriteReg
 406              	.LVL41:
 117:max30102.c    ****         max_ReadReg(REG_TEMP_FRAC,&temp1);
 407              		.loc 1 117 0
 408 001e 0DF11601 		add	r1, sp, #22
 409 0022 2020     		movs	r0, #32
 410 0024 FFF7FEFF 		bl	max_ReadReg
 411              	.LVL42:
 118:max30102.c    ****         temp_int=temp;
 412              		.loc 1 118 0
 413 0028 9DF81700 		ldrb	r0, [sp, #23]	@ zero_extendqisi2
 414 002c FFF7FEFF 		bl	__aeabi_ui2f
 415              	.LVL43:
 416 0030 0546     		mov	r5, r0
 417              	.LVL44:
 119:max30102.c    ****         temp_frac=temp1;
 418              		.loc 1 119 0
 419 0032 9DF81600 		ldrb	r0, [sp, #22]	@ zero_extendqisi2
 420              	.LVL45:
 421 0036 FFF7FEFF 		bl	__aeabi_ui2f
 422              	.LVL46:
 423 003a 0446     		mov	r4, r0
 424              	.LVL47:
 120:max30102.c    ****         sprintf(str,"%.f.",temp_int);
 425              		.loc 1 120 0
 426 003c 2846     		mov	r0, r5
 427              	.LVL48:
 428 003e FFF7FEFF 		bl	__aeabi_f2d
 429              	.LVL49:
 430 0042 0246     		mov	r2, r0
 431 0044 0B46     		mov	r3, r1
 432 0046 0C49     		ldr	r1, .L19
 433 0048 01A8     		add	r0, sp, #4
 434 004a FFF7FEFF 		bl	sprintf
 435              	.LVL50:
 121:max30102.c    ****         UART_1_PutString(str);
 436              		.loc 1 121 0
ARM GAS  C:\Users\furka\AppData\Local\Temp\ccUtBk8k.s 			page 11


 437 004e 01A8     		add	r0, sp, #4
 438 0050 FFF7FEFF 		bl	UART_1_PutString
 439              	.LVL51:
 122:max30102.c    ****         sprintf(str,"%.f",temp_frac);
 440              		.loc 1 122 0
 441 0054 2046     		mov	r0, r4
 442 0056 FFF7FEFF 		bl	__aeabi_f2d
 443              	.LVL52:
 444 005a 0246     		mov	r2, r0
 445 005c 0B46     		mov	r3, r1
 446 005e 0749     		ldr	r1, .L19+4
 447 0060 01A8     		add	r0, sp, #4
 448 0062 FFF7FEFF 		bl	sprintf
 449              	.LVL53:
 123:max30102.c    ****         UART_1_PutString(str);
 450              		.loc 1 123 0
 451 0066 01A8     		add	r0, sp, #4
 452 0068 FFF7FEFF 		bl	UART_1_PutString
 453              	.LVL54:
 124:max30102.c    ****         UART_1_PutCRLF(0);
 454              		.loc 1 124 0
 455 006c 0020     		movs	r0, #0
 456 006e FFF7FEFF 		bl	UART_1_PutCRLF
 457              	.LVL55:
 125:max30102.c    **** }
 458              		.loc 1 125 0
 459 0072 07B0     		add	sp, sp, #28
 460              		.cfi_def_cfa_offset 12
 461              		@ sp needed
 462 0074 30BD     		pop	{r4, r5, pc}
 463              	.LVL56:
 464              	.L20:
 465 0076 00BF     		.align	2
 466              	.L19:
 467 0078 00000000 		.word	.LC0
 468 007c 08000000 		.word	.LC1
 469              		.cfi_endproc
 470              	.LFE69:
 471              		.size	max_Temperature, .-max_Temperature
 472              		.section	.rodata.str1.4,"aMS",%progbits,1
 473              		.align	2
 474              	.LC0:
 475 0000 252E662E 		.ascii	"%.f.\000"
 475      00
 476 0005 000000   		.space	3
 477              	.LC1:
 478 0008 252E6600 		.ascii	"%.f\000"
 479              		.text
 480              	.Letext0:
 481              		.file 2 "c:\\program files (x86)\\cypress\\psoc creator\\4.2\\psoc creator\\import\\gnu\\arm\\5.4.
 482              		.file 3 "c:\\program files (x86)\\cypress\\psoc creator\\4.2\\psoc creator\\import\\gnu\\arm\\5.4.
 483              		.file 4 "Generated_Source\\PSoC5/I2C.h"
 484              		.file 5 "c:\\program files (x86)\\cypress\\psoc creator\\4.2\\psoc creator\\import\\gnu\\arm\\5.4.
 485              		.file 6 "Generated_Source\\PSoC5/UART_1.h"
 486              		.file 7 "Generated_Source\\PSoC5/core_cm3.h"